
USART_Interrupt_V3F.elf:     file format elf32-littleriscv
USART_Interrupt_V3F.elf
architecture: riscv:rv32, flags 0x00000112:
EXEC_P, HAS_SYMS, D_PAGED
start address 0x00000000

Program Header:
0x70000003 off    0x0003ae35 vaddr 0x00000000 paddr 0x00000000 align 2**0
         filesz 0x00000056 memsz 0x00000000 flags r--
    LOAD off    0x00001000 vaddr 0x00000000 paddr 0x00000000 align 2**12
         filesz 0x00000008 memsz 0x00000008 flags r-x
    LOAD off    0x00002000 vaddr 0x20110000 paddr 0x00000008 align 2**12
         filesz 0x000000e4 memsz 0x000000e4 flags r-x
    LOAD off    0x00003000 vaddr 0x20100000 paddr 0x000000ec align 2**12
         filesz 0x00006290 memsz 0x00006290 flags r-x
    LOAD off    0x0000937c vaddr 0x0000637c paddr 0x0000637c align 2**12
         filesz 0x00000084 memsz 0x00000084 flags r-x
    LOAD off    0x0000a100 vaddr 0x20110100 paddr 0x00006400 align 2**12
         filesz 0x00000120 memsz 0x00000ba8 flags rw-
    LOAD off    0x00000800 vaddr 0x2017f800 paddr 0x2017f800 align 2**12
         filesz 0x00000000 memsz 0x00000800 flags rw-

Sections:
Idx Name          Size      VMA       LMA       File off  Algn
  0 .init         00000008  00000000  00000000  00001000  2**2
                  CONTENTS, ALLOC, LOAD, READONLY, CODE
  1 .loadcodelalign 00000000  00000008  00000008  0000a220  2**0
                  CONTENTS
  2 .loadcode     000000e4  20110000  00000008  00002000  2**1
                  CONTENTS, ALLOC, LOAD, READONLY, CODE
  3 .highcodelalign 00000000  000000ec  000000ec  0000a220  2**0
                  CONTENTS
  4 .highcode     00006290  20100000  000000ec  00003000  2**2
                  CONTENTS, ALLOC, LOAD, READONLY, CODE
  5 .text         00000084  0000637c  0000637c  0000937c  2**1
                  CONTENTS, ALLOC, LOAD, READONLY, CODE
  6 .highcodelalign1 00000000  00006400  00006400  0000a220  2**0
                  CONTENTS
  7 .fini         00000000  20106290  20106290  0000a220  2**0
                  CONTENTS, ALLOC, LOAD, CODE
  8 .dtors        00000000  20106290  20106290  0000a220  2**0
                  CONTENTS
  9 .dalign       00000000  20110100  20110100  0000a220  2**0
                  CONTENTS
 10 .dlalign      00000000  00006400  00006400  0000a220  2**0
                  CONTENTS
 11 .data         00000120  20110100  00006400  0000a100  2**2
                  CONTENTS, ALLOC, LOAD, DATA
 12 .bss          00000a88  20110220  00006520  0000a220  2**2
                  ALLOC
 13 .stack        00000800  2017f800  2017f800  0000a800  2**0
                  ALLOC
 14 .debug_info   0001288b  00000000  00000000  0000a220  2**0
                  CONTENTS, READONLY, DEBUGGING, OCTETS
 15 .debug_abbrev 00003363  00000000  00000000  0001caab  2**0
                  CONTENTS, READONLY, DEBUGGING, OCTETS
 16 .debug_aranges 00000fe0  00000000  00000000  0001fe10  2**3
                  CONTENTS, READONLY, DEBUGGING, OCTETS
 17 .debug_rnglists 00001102  00000000  00000000  00020df0  2**0
                  CONTENTS, READONLY, DEBUGGING, OCTETS
 18 .debug_line   00013c0b  00000000  00000000  00021ef2  2**0
                  CONTENTS, READONLY, DEBUGGING, OCTETS
 19 .debug_str    00004a31  00000000  00000000  00035afd  2**0
                  CONTENTS, READONLY, DEBUGGING, OCTETS
 20 .debug_line_str 000008d6  00000000  00000000  0003a52e  2**0
                  CONTENTS, READONLY, DEBUGGING, OCTETS
 21 .comment      00000031  00000000  00000000  0003ae04  2**0
                  CONTENTS, READONLY
 22 .riscv.attributes 00000056  00000000  00000000  0003ae35  2**0
                  CONTENTS, READONLY
 23 .debug_frame  00002458  00000000  00000000  0003ae8c  2**2
                  CONTENTS, READONLY, DEBUGGING, OCTETS
 24 .debug_loclists 000062a5  00000000  00000000  0003d2e4  2**0
                  CONTENTS, READONLY, DEBUGGING, OCTETS
SYMBOL TABLE:
00000000 l    d  .init	00000000 .init
00000008 l    d  .loadcodelalign	00000000 .loadcodelalign
20110000 l    d  .loadcode	00000000 .loadcode
000000ec l    d  .highcodelalign	00000000 .highcodelalign
20100000 l    d  .highcode	00000000 .highcode
0000637c l    d  .text	00000000 .text
00006400 l    d  .highcodelalign1	00000000 .highcodelalign1
20106290 l    d  .fini	00000000 .fini
20106290 l    d  .dtors	00000000 .dtors
20110100 l    d  .dalign	00000000 .dalign
00006400 l    d  .dlalign	00000000 .dlalign
20110100 l    d  .data	00000000 .data
20110220 l    d  .bss	00000000 .bss
2017f800 l    d  .stack	00000000 .stack
00000000 l    d  .debug_info	00000000 .debug_info
00000000 l    d  .debug_abbrev	00000000 .debug_abbrev
00000000 l    d  .debug_aranges	00000000 .debug_aranges
00000000 l    d  .debug_rnglists	00000000 .debug_rnglists
00000000 l    d  .debug_line	00000000 .debug_line
00000000 l    d  .debug_str	00000000 .debug_str
00000000 l    d  .debug_line_str	00000000 .debug_line_str
00000000 l    d  .comment	00000000 .comment
00000000 l    d  .riscv.attributes	00000000 .riscv.attributes
00000000 l    d  .debug_frame	00000000 .debug_frame
00000000 l    d  .debug_loclists	00000000 .debug_loclists
00000000 l    df *ABS*	00000000 startup_ch32h417_v3f.o
20100000 l       .highcode	00000000 _vector_base
20110000 l       .loadcode	00000000 _load_base
000063ee l       .text	00000000 BP
00000000 l    df *ABS*	00000000 save-restore.o
00000000 l    df *ABS*	00000000 lib_a-memcpy-asm.o
00000000 l    df *ABS*	00000000 lib_a-memset.o
00000000 l    df *ABS*	00000000 lib_a-strcmp.o
00000000 l    df *ABS*	00000000 lib_a-memmove.o
00000000 l    df *ABS*	00000000 ch32h417_it.c
00000000 l    df *ABS*	00000000 main.c
00000000 l    df *ABS*	00000000 system_ch32h417.c
20100386 l     F .highcode	00000140 SetSYSCLK_400M_CoreCLK_V5F_400M_V3F_100M_HSE
201004c6 l     F .highcode	0000000a SetSysClock
20110110 l     O .data	00000010 HBPrescTB
201101e0 l     O .data	00000004 FPRETB
20110120 l     O .data	00000020 PLLMULTB
20110100 l     O .data	00000010 SERDESPLLMULTB
00000000 l    df *ABS*	00000000 ch32h417_flash.c
00000000 l    df *ABS*	00000000 ch32h417_gpio.c
00000000 l    df *ABS*	00000000 ch32h417_hsem.c
00000000 l    df *ABS*	00000000 ch32h417_i2c.c
00000000 l    df *ABS*	00000000 ch32h417_ipc.c
00000000 l    df *ABS*	00000000 ch32h417_rcc.c
20110150 l     O .data	00000010 HBPrescTable
201101f8 l     O .data	00000004 FPRETable
201101f0 l     O .data	00000008 PPRE2Table
201101ec l     O .data	00000004 ADCPRETable
20110160 l     O .data	00000020 PLLMULTable
20110140 l     O .data	00000010 SERDESPLLMULTable
00000000 l    df *ABS*	00000000 ch32h417_spi.c
00000000 l    df *ABS*	00000000 ch32h417_tim.c
00000000 l    df *ABS*	00000000 ch32h417_usart.c
00000000 l    df *ABS*	00000000 atk_ms901m.c
20101866 l     F .highcode	00000072 atk_ms901m_write_reg_by_id
201018d8 l     F .highcode	00000152 atk_ms901m_get_frame_by_id
20101a2a l     F .highcode	00000082 atk_ms901m_read_reg_by_id
201101fd l     O .data	00000001 g_gyro_fsr_idx
201101fc l     O .data	00000001 g_accel_fsr_idx
20110214 l     O .data	00000008 g_gyro_fsr_table
20110210 l     O .data	00000004 g_accel_fsr_table
00000000 l    df *ABS*	00000000 atk_ms901m_uart.c
20110274 l     O .bss	00000106 g_uart_rx_fifo
00000000 l    df *ABS*	00000000 bsp_esc_pwm.c
00000000 l    df *ABS*	00000000 bsp_tof_tfmini.c
20110248 l     O .bss	00000004 g_tfmini_data
20110224 l     O .bss	00000001 rx_sync
20110228 l     O .bss	00000006 rx_buf
20110225 l     O .bss	00000001 rx_idx
00000000 l    df *ABS*	00000000 oled_ssd1306.c
2010208e l     F .highcode	0000003c i2c_start
201020ca l     F .highcode	00000032 i2c_send_addr
201020fc l     F .highcode	0000002c i2c_send_byte
20102128 l     F .highcode	0000000e i2c_stop
20102136 l     F .highcode	0000001e oled_write_cmd
20102154 l     F .highcode	0000009c oled_init_sequence
201021f0 l     F .highcode	00000034 oled_write_data_burst
2011037c l     O .bss	00000400 g_oled_fb
20105af0 l     O .highcode	0000023a g_font_6x8
00000000 l    df *ABS*	00000000 sensor_flow.c
2010242a l     F .highcode	00000048 spi3_transfer
20102472 l     F .highcode	0000002e registerWrite
201024a0 l     F .highcode	000000e4 InitRegisters
20102584 l     F .highcode	00000030 registerRead
2011024c l     O .bss	00000002 g_error_count
00000000 l    df *ABS*	00000000 sensor_gps.c
2010272c l     F .highcode	00000024 fifo_available
20110850 l     O .bss	00000404 g_gps_rx_fifo
20102750 l     F .highcode	0000001a fifo_read
2010276a l     F .highcode	00000044 parse_int
201027ae l     F .highcode	0000009a parse_decimal_scaled
20102848 l     F .highcode	00000062 parse_latlon_deg_e7
201028aa l     F .highcode	00000056 parse_utc_ms
20102900 l     F .highcode	00000048 hex_val
20102948 l     F .highcode	0000007c nmea_checksum_ok
201029c4 l     F .highcode	0000005e split_fields
20102a22 l     F .highcode	00000074 talker_supported
20102a96 l     F .highcode	000000d8 parse_gga
201107fc l     O .bss	00000054 g_gps_data
20102b6e l     F .highcode	000000e4 parse_rmc
20102c52 l     F .highcode	0000006e parse_vtg
20102cc0 l     F .highcode	00000048 parse_gsa
20102d08 l     F .highcode	00000022 parse_gsv
20102d2a l     F .highcode	0000007a parse_gll
20102da4 l     F .highcode	00000024 copy_field
20102dc8 l     F .highcode	00000110 parse_nmea_line
20110250 l     O .bss	00000002 g_nmea_idx
2011024e l     O .bss	00000001 g_nmea_collecting
2011077c l     O .bss	00000080 g_nmea_line
00000000 l    df *ABS*	00000000 debug.c
20110258 l     O .bss	00000002 p_us
20110254 l     O .bss	00000004 p_ms
20110208 l     O .data	00000004 curbrk.0
00000000 l    df *ABS*	00000000 hardware.c
201033b2 l     F .highcode	0000000a abs_i32
201033bc l     F .highcode	0000002a gps_fix_type_text
201033e6 l     F .highcode	00000042 format_deg_e7
20103428 l     F .highcode	000001a6 oled_show_gps_page
00000000 l    df *ABS*	00000000 ipc_comm.c
00000000 l    df *ABS*	00000000 _divdi3.o
00000000 l    df *ABS*	00000000 _udivdi3.o
00000000 l    df *ABS*	00000000 lib_a-printf.o
00000000 l    df *ABS*	00000000 lib_a-puts.o
00000000 l    df *ABS*	00000000 lib_a-snprintf.o
00000000 l    df *ABS*	00000000 lib_a-strlen.o
00000000 l    df *ABS*	00000000 lib_a-wbuf.o
00000000 l    df *ABS*	00000000 lib_a-wsetup.o
00000000 l    df *ABS*	00000000 lib_a-fflush.o
00000000 l    df *ABS*	00000000 lib_a-findfp.o
201047b2 l     F .highcode	00000066 std
00000000 l    df *ABS*	00000000 lib_a-fwalk.o
00000000 l    df *ABS*	00000000 lib_a-lock.o
00000000 l    df *ABS*	00000000 lib_a-makebuf.o
00000000 l    df *ABS*	00000000 lib_a-nano-freer.o
00000000 l    df *ABS*	00000000 lib_a-nano-mallocr.o
20104ba2 l     F .highcode	0000005a sbrk_aligned
00000000 l    df *ABS*	00000000 lib_a-nano-svfprintf.o
00000000 l    df *ABS*	00000000 lib_a-nano-vfprintf_i.o
00000000 l    df *ABS*	00000000 lib_a-nano-vfprintf.o
201053c4 l     F .highcode	00000028 __sfputc_r
00000000 l    df *ABS*	00000000 lib_a-sbrkr.o
00000000 l    df *ABS*	00000000 lib_a-stdio.o
00000000 l    df *ABS*	00000000 lib_a-writer.o
00000000 l    df *ABS*	00000000 lib_a-closer.o
00000000 l    df *ABS*	00000000 lib_a-fstatr.o
00000000 l    df *ABS*	00000000 lib_a-isattyr.o
00000000 l    df *ABS*	00000000 lib_a-lseekr.o
00000000 l    df *ABS*	00000000 lib_a-memchr.o
00000000 l    df *ABS*	00000000 lib_a-mlock.o
00000000 l    df *ABS*	00000000 lib_a-nano-reallocr.o
00000000 l    df *ABS*	00000000 lib_a-readr.o
00000000 l    df *ABS*	00000000 lib_a-nano-msizer.o
00000000 l    df *ABS*	00000000 close.o
00000000 l    df *ABS*	00000000 fstat.o
00000000 l    df *ABS*	00000000 isatty.o
00000000 l    df *ABS*	00000000 lseek.o
00000000 l    df *ABS*	00000000 read.o
00000000 l    df *ABS*	00000000 lib_a-impure.o
20110180 l     O .data	00000060 impure_data
20105946 g     F .highcode	00000014 _malloc_usable_size_r
20100774  w      .highcode	00000000 TIM8_TRG_COM_IRQHandler
20100774  w      .highcode	00000000 TIM8_CC_IRQHandler
20100774  w      .highcode	00000000 USART_WKUP_IRQHandler
2010582e g     F .highcode	00000026 _isatty_r
201042c0 g     F .highcode	00000106 _puts_r
20105854 g     F .highcode	0000002a _lseek_r
201016c0 g     F .highcode	00000004 TIM_SetCompare2
201008c8 g     F .highcode	000001fe GPIO_PinAFConfig
20100774  w      .highcode	00000000 SPI4_IRQHandler
20103b12 g     F .highcode	000003da .hidden __divdi3
20100774  w      .highcode	00000000 DFSDM0_IRQHandler
201008b2 g     F .highcode	0000000e GPIO_ReadOutputDataBit
20104286 g     F .highcode	0000003a printf
201109e0 g       .data	00000000 __global_pointer$
2010025c g     F .highcode	00000028 .hidden __riscv_save_8
20100774  w      .highcode	00000000 TIM1_CC_IRQHandler
20101eea g     F .highcode	00000096 bsp_tof_tfmini_init
20105780 g     F .highcode	0000002e __sseek
20104880 g     F .highcode	00000072 __sinit
20101358 g     F .highcode	00000004 SPI_I2S_SendData
2010444e g     F .highcode	000000bc __swbuf_r
20100316 g     F .highcode	00000010 HardFault_Handler
20103172 g     F .highcode	000000bc SENSOR_GPS_UART_IRQHandler
20100774  w      .highcode	00000000 TIM10_IRQHandler
20104822 g     F .highcode	00000046 __sfmoreglue
2010589e g     F .highcode	00000008 __malloc_unlock
20100774  w      .highcode	00000000 IPC_CH2_Handler
20100774  w      .highcode	00000000 USBPD_IRQHandler
201002a8 g     F .highcode	0000000c .hidden __riscv_restore_3
20100774  w      .highcode	00000000 TIM6_IRQHandler
20101674 g     F .highcode	0000000e TIM_OC1PreloadConfig
20100774  w      .highcode	00000000 CAN3_RX1_IRQHandler
20100774  w      .highcode	00000000 I3C_ER_IRQHandler
20103002 g     F .highcode	00000130 sensor_gps_poll
20101d82 g     F .highcode	00000122 bsp_esc_pwm_init
20100774  w      .highcode	00000000 SDIO_IRQHandler
201002ee g     F .highcode	00000026 memmove
20100294 g     F .highcode	00000020 .hidden __riscv_restore_10
2010135c g     F .highcode	00000004 SPI_I2S_ReceiveData
201043d0 g     F .highcode	0000006e snprintf
20100774  w      .highcode	00000000 DMA2_Channel8_IRQHandler
20100314 g     F .highcode	00000002 NMI_Handler
2010226a g     F .highcode	000000aa oled_init
20100774  w      .highcode	00000000 CAN2_RX1_IRQHandler
20100774  w      .highcode	00000000 HSEM_Handler
2010025c g     F .highcode	00000028 .hidden __riscv_save_11
20100774  w      .highcode	00000000 USBHS_IRQHandler
20100774  w      .highcode	00000000 LPTIM2_IRQHandler
20102224 g     F .highcode	00000012 oled_clear
20101806 g     F .highcode	0000000e USART_GetFlagStatus
20105806 g     F .highcode	00000028 _fstat_r
20110270 g     O .bss	00000004 errno
20110220 g       .bss	00000000 _sbss
00000800 g       *ABS*	00000000 __stack_size
201032c8 g     F .highcode	0000007c USART_Printf_Init
20100774  w      .highcode	00000000 USBFSWakeup_IRQHandler
20100774  w      .highcode	00000000 I2C3_ER_IRQHandler
20101ea4 g     F .highcode	00000046 bsp_esc_pwm_set_all
20100774  w      .highcode	00000000 USBFS_IRQHandler
201002a8 g     F .highcode	0000000c .hidden __riscv_restore_2
20101632 g     F .highcode	00000024 TIM_CtrlPWMOutputs
201002b4 g     F .highcode	00000016 memcpy
20101048 g     F .highcode	0000001e IPC_ReadMSG
20100774  w      .highcode	00000000 USART8_IRQHandler
20104818 g     F .highcode	0000000a _cleanup_r
20104de8 g     F .highcode	00000258 _svfprintf_r
20100774  w      .highcode	00000000 I2C2_EV_IRQHandler
20101616 g     F .highcode	0000001c TIM_Cmd
201043c6 g     F .highcode	0000000a puts
20100774  w      .highcode	00000000 CAN1_RX0_IRQHandler
201016a6 g     F .highcode	00000016 TIM_OC4PreloadConfig
20100776 g     F .highcode	00000036 FLASH_BOOT_GetMode
201101e4 g     O .data	00000004 SystemCoreClock
20100774  w      .highcode	00000000 CAN3_SCE_IRQHandler
201017fe g     F .highcode	00000008 USART_ReceiveData
20105966 g     F .highcode	0000000c _fstat
00000008 g       .init	00000000 _einit
20100254 g     F .highcode	00000030 .hidden __riscv_save_12
20100774  w      .highcode	00000000 CAN2_SCE_IRQHandler
20100774  w      .highcode	00000000 ADC1_2_IRQHandler
201007b6 g     F .highcode	000000ee GPIO_Init
20100774  w      .highcode	00000000 Break_Point_Handler
20100774  w      .highcode	00000000 IPC_CH0_Handler
20100294 g     F .highcode	00000020 .hidden __riscv_restore_11
20100774  w      .highcode	00000000 SPI1_IRQHandler
20100774  w      .highcode	00000000 USART5_IRQHandler
20101790 g     F .highcode	00000018 USART_Cmd
201056e8 g     F .highcode	00000028 _sbrk_r
20102314 g     F .highcode	000000d4 oled_show_char
20100284 g     F .highcode	0000000c .hidden __riscv_save_1
201007ac g     F .highcode	0000000a FLASH_GetUserOptionByte
201002a8 g     F .highcode	0000000c .hidden __riscv_restore_0
20100774  w      .highcode	00000000 SysTick0_Handler
20101500 g     F .highcode	000000a0 TIM_OC3Init
20100774  w      .highcode	00000000 EXTI7_0_IRQHandler
2010591c g     F .highcode	0000002a _read_r
2010026a g     F .highcode	0000001a .hidden __riscv_save_7
20100774  w      .highcode	00000000 CAN2_RX0_IRQHandler
20100774  w      .highcode	00000000 TIM8_UP_IRQHandler
20100774  w      .highcode	00000000 Ecall_M_Mode_Handler
20100774  w      .highcode	00000000 ECDC_IRQHandler
20100774  w      .highcode	00000000 SDMMC_IRQHandler
2017f800 g       .stack	00000000 _heap_end
20105972 g     F .highcode	0000000c _isatty
20110264 g     O .bss	00000001 __lock___sinit_recursive_mutex
20103254 g     F .highcode	0000003a Delay_Us
2011021c g     O .data	00000004 _global_impure_ptr
2010029e g     F .highcode	00000016 .hidden __riscv_restore_5
201058a6 g     F .highcode	00000076 _realloc_r
20100774  w      .highcode	00000000 USART7_IRQHandler
20101360 g     F .highcode	0000000e SPI_I2S_GetFlagStatus
20100774  w      .highcode	00000000 DMA2_Channel2_IRQHandler
20103eec g     F .highcode	0000039a .hidden __udivdi3
20100774  w      .highcode	00000000 DMA1_Channel4_IRQHandler
20101c28 g     F .highcode	0000003a atk_ms901m_uart_send
20100f04 g     F .highcode	00000004 I2C_SendData
20103388 g     F .highcode	0000002a _sbrk
20101f80 g     F .highcode	0000010e USART6_IRQHandler
20100fd8 g     F .highcode	0000000e IPC_CH0_Lock
20100774  w      .highcode	00000000 CAN3_RX0_IRQHandler
20110230 g     O .bss	00000006 g_tof_last_frame
201012b0 g     F .highcode	0000001c RCC_HB2PeriphClockCmd
20100774  w      .highcode	00000000 HSADC_IRQHandler
20100da8 g     F .highcode	00000104 I2C_Init
2010029e g     F .highcode	00000016 .hidden __riscv_restore_6
20100326 g     F .highcode	00000008 USART3_IRQHandler
20100774  w      .highcode	00000000 RTC_IRQHandler
20110ca8 g       .bss	00000000 _ebss
20101814 g     F .highcode	00000052 USART_GetITStatus
20100774  w      .highcode	00000000 DMA1_Channel7_IRQHandler
201013f0 g     F .highcode	0000006e TIM_OC1Init
20101698 g     F .highcode	0000000e TIM_OC3PreloadConfig
20100774  w      .highcode	00000000 CAN1_RX1_IRQHandler
2010322e g     F .highcode	00000026 Delay_Init
2010101a g     F .highcode	00000010 IPC_ClearFlagStatus
20100774  w      .highcode	00000000 DVP_IRQHandler
2011025c g     O .bss	00000001 __lock___malloc_recursive_mutex
20102236 g     F .highcode	00000034 oled_refresh
20100774  w      .highcode	00000000 USBSS_IRQHandler
20100ac6 g     F .highcode	00000288 GPIO_IPD_Unused
20100774  w      .highcode	00000000 SWPMI_IRQHandler
20100774  w      .highcode	00000000 USBPDWakeUp_IRQHandler
20100774  w      .highcode	00000000 EXTI15_8_IRQHandler
201008c0 g     F .highcode	00000004 GPIO_SetBits
20100774  w      .highcode	00000000 TIM4_IRQHandler
2011023c g     O .bss	00000004 g_tof_crc_error_count
20101656 g     F .highcode	0000001e TIM_ARRPreloadConfig
2010025c g     F .highcode	00000028 .hidden __riscv_save_9
20100d7a g     F .highcode	00000020 HSEM_ReleaseOneSem
20100774  w      .highcode	00000000 DMA2_Channel1_IRQHandler
20100774  w      .highcode	00000000 SWPMI_WKUP_IRQHandler
20100ec8 g     F .highcode	0000001e I2C_GenerateSTART
2010619c g     O .highcode	00000020 __sf_fake_stderr
201043d0 g     F .highcode	0000006e sniprintf
2010026a g     F .highcode	0000001a .hidden __riscv_save_4
20100774  w      .highcode	00000000 I2C1_EV_IRQHandler
20104a0e g     F .highcode	00000002 __retarget_lock_release_recursive
20100774  w      .highcode	00000000 USBSSWakeup_IRQHandler
2010032e g     F .highcode	00000008 USART4_IRQHandler
20104d0a g     F .highcode	000000de __ssputs_r
20101066 g     F .highcode	0000024a RCC_GetClocksFreq
20100774  w      .highcode	00000000 DMA1_Channel6_IRQHandler
201053ec g     F .highcode	00000042 __sfputs_r
20100774  w      .highcode	00000000 DMA2_Channel4_IRQHandler
20104868 g     F .highcode	00000006 __sfp_lock_acquire
2010587e g     F .highcode	00000018 memchr
201016ce g     F .highcode	000000c2 USART_Init
20104b00 g     F .highcode	000000a2 _free_r
20100774  w      .highcode	00000000 TIM3_IRQHandler
20100774  w      .highcode	00000000 RCC_IRQHandler
20100284 g     F .highcode	0000000c .hidden __riscv_save_3
20110238 g     O .bss	00000004 g_tof_len_error_count
20100774  w      .highcode	00000000 TIM1_TRG_COM_IRQHandler
20100774  w      .highcode	00000000 DMA1_Channel1_IRQHandler
00000000 g       .init	00000000 _start
20100774  w      .highcode	00000000 DMA2_Channel7_IRQHandler
20100f36 g     F .highcode	00000038 I2C_GetFlagStatus
2010597e g     F .highcode	0000000c _lseek
20101682 g     F .highcode	00000016 TIM_OC2PreloadConfig
20106290 g       .dtors	00000000 _highcode_vma_end1
20100774  w      .highcode	00000000 QSPI1_IRQHandler
2010145e g     F .highcode	000000a2 TIM_OC2Init
201017a8 g     F .highcode	0000004e USART_ITConfig
20100000 g       .highcode	00000000 _highcode_vma_start
20100774  w      .highcode	00000000 DMA1_Channel8_IRQHandler
20100774  w      .highcode	00000000 IPC_CH3_Handler
20100774  w      .highcode	00000000 I3C_EV_IRQHandler
2010388e g     F .highcode	00000232 ipc_v3f_send_sensor_frame
20100774  w      .highcode	00000000 I3C_WKUP_IRQHandler
20100eac g     F .highcode	0000001c I2C_Cmd
201008c4 g     F .highcode	00000004 GPIO_ResetBits
20100774  w      .highcode	00000000 TIM12_IRQHandler
20100774  w      .highcode	00000000 TIM7_IRQHandler
201057e0 g     F .highcode	00000026 _close_r
20100774  w      .highcode	00000000 CAN2_TX_IRQHandler
20110100 g       .dalign	00000000 _data_vma
20100774  w      .highcode	00000000 TIM5_IRQHandler
201016c4 g     F .highcode	00000004 TIM_SetCompare3
201012cc g     F .highcode	0000001c RCC_HB1PeriphClockCmd
201015a0 g     F .highcode	00000076 TIM_OC4Init
20100774  w      .highcode	00000000 I2C3_EV_IRQHandler
2010450a g     F .highcode	000000ee __swsetup_r
20100774  w      .highcode	00000000 PIOC_IRQHandler
201048f2 g     F .highcode	000000b0 __sfp
20100774  w      .highcode	00000000 TIM9_IRQHandler
2010487a g     F .highcode	00000006 __sinit_lock_release
20100774  w      .highcode	00000000 LTDC_IRQHandler
20100774  w      .highcode	00000000 SAI_IRQHandler
2010025c g     F .highcode	00000028 .hidden __riscv_save_10
20105710 g     F .highcode	0000002a __sread
20100f08 g     F .highcode	00000010 I2C_Send7bitAddress
20100774  w      .highcode	00000000 ETH_WKUP_IRQHandler
20105896 g     F .highcode	00000008 __malloc_lock
2010029e g     F .highcode	00000016 .hidden __riscv_restore_4
20100294 g     F .highcode	00000020 .hidden __riscv_restore_8
2010472a g     F .highcode	00000088 _fflush_r
2010026a g     F .highcode	0000001a .hidden __riscv_save_6
20100774  w      .highcode	00000000 SPI2_IRQHandler
201061dc g     O .highcode	00000020 __sf_fake_stdin
20110220 g     O .bss	00000004 HCLKClock
20104a0c g     F .highcode	00000002 __retarget_lock_acquire_recursive
20100774  w      .highcode	00000000 IPC_CH1_Handler
00006400 g       .highcodelalign1	00000000 _highcode_lma1
201002ca g     F .highcode	00000010 memset
20100294 g     F .highcode	00000020 .hidden __riscv_restore_9
2010029e g     F .highcode	00000016 .hidden __riscv_restore_7
20100336 g     F .highcode	00000050 main
20110c54 g     O .bss	00000054 g_gps
20100774  w      .highcode	00000000 LPTIM1_WKUP_IRQHandler
20104a0a g     F .highcode	00000002 __retarget_lock_init_recursive
20106290 g       .fini	00000000 _highcode_vma_start1
20100774  w      .highcode	00000000 CAN1_TX_IRQHandler
201057ae g     F .highcode	00000006 __sclose
20100774  w      .highcode	00000000 DMA2_Channel5_IRQHandler
20104bfc g     F .highcode	0000010e _malloc_r
20100774  w      .highcode	00000000 DMA1_Channel5_IRQHandler
2010328e g     F .highcode	0000003a Delay_Ms
201016c8 g     F .highcode	00000006 TIM_SetCompare4
2010133a g     F .highcode	0000001e SPI_Cmd
201002da g     F .highcode	00000014 strcmp
20100fe6 g     F .highcode	0000000e IPC_CH1_Lock
201100e4 g       .loadcode	00000000 _loadcode_vma_end
20100774  w      .highcode	00000000 QSPI2_IRQHandler
000000ec g       .highcodelalign	00000000 _highcode_lma
201004d0 g     F .highcode	00000088 SystemInit
201035ce g     F .highcode	0000026a Hardware
20100774  w      .highcode	00000000 RNG_IRQHandler
20104286 g     F .highcode	0000003a iprintf
2010102a g     F .highcode	0000001e IPC_WriteMSG
20101b68 g     F .highcode	0000003c atk_ms901m_uart_rx_fifo_write
20110200 g     O .data	00000008 g_esc_pwm
2010609c g     O .highcode	00000100 .hidden __clz_tab
00000000 g       .init	00000000 _sinit
20101c62 g     F .highcode	000000d2 atk_ms901m_uart_init
201057b4 g     F .highcode	0000002c _write_r
20100774  w      .highcode	00000000 DMA1_Channel3_IRQHandler
20101d34 g     F .highcode	0000004e ATK_MS901M_UART_IRQHandler
20100d9a g     F .highcode	0000000e HSEM_ReleaseAllSem
20100774  w      .highcode	00000000 ETH_IRQHandler
20105040 g     F .highcode	0000010a _printf_common
2011020c g     O .data	00000004 _impure_ptr
20100774  w      .highcode	00000000 TIM1_UP_IRQHandler
20101aac g     F .highcode	000000bc atk_ms901m_init
201045f8 g     F .highcode	00000132 __sflush_r
20100fbe g     F .highcode	0000001a IPC_StructInit
20104de8 g     F .highcode	00000258 _svfiprintf_r
20100774  w      .highcode	00000000 WWDG_IRQHandler
20100774  w      .highcode	00000000 USBHSWakeup_IRQHandler
20110236 g     O .bss	00000001 g_tof_last_rx_byte
20100774  w      .highcode	00000000 Ecall_U_Mode_Handler
20100774  w      .highcode	00000000 I2C4_EV_IRQHandler
20100774  w      .highcode	00000000 CAN3_TX_IRQHandler
20100f6e g     F .highcode	00000050 IPC_Init
20100774  w      .highcode	00000000 DMA2_Channel6_IRQHandler
20100774  w      .highcode	00000000 TIM2_IRQHandler
20180000 g       .stack	00000000 _eusrstack
20100284 g     F .highcode	0000000c .hidden __riscv_save_2
20100774  w      .highcode	00000000 SW_Handler
20101ba4 g     F .highcode	00000072 atk_ms901m_uart_rx_fifo_read
20100d4e g     F .highcode	0000002c HSEM_FastTake
201101e8 g     O .data	00000004 SystemClock
20100774  w      .highcode	00000000 TIM1_BRK_IRQHandler
20104a10 g     F .highcode	0000005a __swhatbuf_r
20100774  w      .highcode	00000000 GPHA_IRQHandler
201017f6 g     F .highcode	00000008 USART_SendData
20100ff4 g     F .highcode	00000016 IPC_GetFlagStatus
2010026a g     F .highcode	0000001a .hidden __riscv_save_5
20103344 g     F .highcode	00000044 _write
20110220 g       .data	00000000 _edata
20110000 g       .loadcode	00000000 _loadcode_vma_start
20110ca8 g       .bss	00000000 _end
20100774  w      .highcode	00000000 LPTIM2_WKUP_IRQHandler
20106290 g       .highcode	00000000 _highcode_vma_end
2010136e g     F .highcode	00000082 TIM_TimeBaseInit
20100774  w      .highcode	00000000 RTCAlarm_IRQHandler
20100774  w      .highcode	00000000 TIM11_IRQHandler
00006400 g       .dlalign	00000000 _data_lma
20103838 g     F .highcode	00000056 ipc_comm_init
20100774  w      .highcode	00000000 USART2_IRQHandler
2010573a g     F .highcode	00000046 __swrite
00000008 g       .loadcodelalign	00000000 _loadcode_lma
20100774  w      .highcode	00000000 UHSIF_IRQHandler
2010542e g     F .highcode	000002ba _vfiprintf_r
20110240 g     O .bss	00000004 g_tof_frame_count
201049a2 g     F .highcode	00000068 _fwalk_reent
20100558 g     F .highcode	0000021c SystemAndCoreClockUpdate
20100774  w      .highcode	00000000 I2C2_ER_IRQHandler
20100774  w      .highcode	00000000 DMA1_Channel2_IRQHandler
20103132 g     F .highcode	00000040 sensor_gps_get_data
2010486e g     F .highcode	00000006 __sfp_lock_release
201061bc g     O .highcode	00000020 __sf_fake_stdout
2010100a g     F .highcode	00000010 IPC_SetFlagStatus
20100290 g     F .highcode	00000024 .hidden __riscv_restore_12
20100774  w      .highcode	00000000 TIM8_BRK_IRQHandler
2010598a g     F .highcode	0000000c _read
0000637c  w      .text	00000000 handle_reset
20100774  w      .highcode	00000000 CAN1_SCE_IRQHandler
20100774  w      .highcode	00000000 FLASH_IRQHandler
20100284 g     F .highcode	0000000c .hidden __riscv_save_0
20100774  w      .highcode	00000000 USART1_IRQHandler
20103ac0 g     F .highcode	00000052 ipc_v3f_recv_control
20104a6a g     F .highcode	00000096 __smakebuf_r
201025b4 g     F .highcode	00000178 sensor_flow_init
2010443e g     F .highcode	00000010 strlen
2010514a g     F .highcode	0000027a _printf_i
20100774  w      .highcode	00000000 SPI3_IRQHandler
20110268 g     O .bss	00000004 __malloc_sbrk_start
20100f18 g     F .highcode	0000001e I2C_CheckEvent
20100ee6 g     F .highcode	0000001e I2C_GenerateSTOP
20110244 g     O .bss	00000004 g_tof_irq_count
20100774  w      .highcode	00000000 I2C1_ER_IRQHandler
20100774  w      .highcode	00000000 FMC_IRQHandler
201012e8 g     F .highcode	00000052 SPI_Init
20100774  w      .highcode	00000000 SysTick1_Handler
2011026c g     O .bss	00000004 __malloc_free_list
201002a8 g     F .highcode	0000000c .hidden __riscv_restore_1
20100774  w      .highcode	00000000 LPTIM1_IRQHandler
20100774  w      .highcode	00000000 DFSDM1_IRQHandler
2010542e g     F .highcode	000002ba _vfprintf_r
201016bc g     F .highcode	00000004 TIM_SetCompare1
20100774  w      .highcode	00000000 I2C4_ER_IRQHandler
20100774  w      .highcode	00000000 SERDES_IRQHandler
201023e8 g     F .highcode	00000042 oled_show_string
201008a4 g     F .highcode	0000000e GPIO_ReadInputDataBit
20100774  w      .highcode	00000000 USBSS_LINK_IRQHandler
20102ed8 g     F .highcode	0000012a sensor_gps_init
20101c16 g     F .highcode	00000012 atk_ms901m_uart_rx_fifo_flush
20110260 g     O .bss	00000001 __lock___sfp_recursive_mutex
2010595a g     F .highcode	0000000c _close
20104874 g     F .highcode	00000006 __sinit_lock_acquire
20100774  w      .highcode	00000000 DMA2_Channel3_IRQHandler



Disassembly of section .init:

00000000 <_sinit>:
   0:	37c0606f          	j	637c <handle_reset>
   4:	0000                	unimp
	...

Disassembly of section .loadcode:

20110000 <_loadcode_vma_start>:
20110000:	400214b7          	lui	s1,0x40021
20110004:	40e00593          	li	a1,1038
20110008:	c48c                	sw	a1,8(s1)
2011000a:	0004a283          	lw	t0,0(s1) # 40021000 <_eusrstack+0x1fea1000>
2011000e:	01000337          	lui	t1,0x1000
20110012:	0062e2b3          	or	t0,t0,t1
20110016:	0054a023          	sw	t0,0(s1)
2011001a:	0004a383          	lw	t2,0(s1)
2011001e:	02000e37          	lui	t3,0x2000
20110022:	01c3f3b3          	and	t2,t2,t3
20110026:	fe038ae3          	beqz	t2,2011001a <_loadcode_vma_start+0x1a>
2011002a:	0084ae83          	lw	t4,8(s1)
2011002e:	80000f37          	lui	t5,0x80000
20110032:	01eeeeb3          	or	t4,t4,t5
20110036:	01d4a423          	sw	t4,8(s1)
2011003a:	4f89                	li	t6,2
2011003c:	01f4a223          	sw	t6,4(s1)
20110040:	0044a903          	lw	s2,4(s1)
20110044:	49a1                	li	s3,8
20110046:	01397933          	and	s2,s2,s3
2011004a:	fe090be3          	beqz	s2,20110040 <_loadcode_vma_start+0x40>
2011004e:	0ec00513          	li	a0,236
20110052:	ffff0597          	auipc	a1,0xffff0
20110056:	fae58593          	addi	a1,a1,-82 # 20100000 <_highcode_vma_start>
2011005a:	ffff6617          	auipc	a2,0xffff6
2011005e:	23660613          	addi	a2,a2,566 # 20106290 <_highcode_vma_end>
20110062:	00c5fa63          	bgeu	a1,a2,20110076 <_loadcode_vma_start+0x76>
20110066:	00052283          	lw	t0,0(a0)
2011006a:	0055a023          	sw	t0,0(a1)
2011006e:	0511                	addi	a0,a0,4
20110070:	0591                	addi	a1,a1,4
20110072:	fec5eae3          	bltu	a1,a2,20110066 <_loadcode_vma_start+0x66>
20110076:	dfef6517          	auipc	a0,0xdfef6
2011007a:	38a50513          	addi	a0,a0,906 # 6400 <_data_lma>
2011007e:	ffff6597          	auipc	a1,0xffff6
20110082:	21258593          	addi	a1,a1,530 # 20106290 <_highcode_vma_end>
20110086:	ffff6617          	auipc	a2,0xffff6
2011008a:	20a60613          	addi	a2,a2,522 # 20106290 <_highcode_vma_end>
2011008e:	00c5fa63          	bgeu	a1,a2,201100a2 <_loadcode_vma_start+0xa2>
20110092:	00052283          	lw	t0,0(a0)
20110096:	0055a023          	sw	t0,0(a1)
2011009a:	0511                	addi	a0,a0,4
2011009c:	0591                	addi	a1,a1,4
2011009e:	fec5eae3          	bltu	a1,a2,20110092 <_loadcode_vma_start+0x92>
201100a2:	dfef6517          	auipc	a0,0xdfef6
201100a6:	35e50513          	addi	a0,a0,862 # 6400 <_data_lma>
201100aa:	00000597          	auipc	a1,0x0
201100ae:	05658593          	addi	a1,a1,86 # 20110100 <SERDESPLLMULTB>
201100b2:	84018613          	addi	a2,gp,-1984 # 20110220 <HCLKClock>
201100b6:	00c5fa63          	bgeu	a1,a2,201100ca <_loadcode_vma_start+0xca>
201100ba:	00052283          	lw	t0,0(a0)
201100be:	0055a023          	sw	t0,0(a1)
201100c2:	0511                	addi	a0,a0,4
201100c4:	0591                	addi	a1,a1,4
201100c6:	fec5eae3          	bltu	a1,a2,201100ba <_loadcode_vma_start+0xba>
201100ca:	84018513          	addi	a0,gp,-1984 # 20110220 <HCLKClock>
201100ce:	2c818593          	addi	a1,gp,712 # 20110ca8 <_ebss>
201100d2:	00b57763          	bgeu	a0,a1,201100e0 <_loadcode_vma_start+0xe0>
201100d6:	00052023          	sw	zero,0(a0)
201100da:	0511                	addi	a0,a0,4
201100dc:	feb56de3          	bltu	a0,a1,201100d6 <_loadcode_vma_start+0xd6>
201100e0:	8082                	ret
	...

Disassembly of section .highcode:

20100000 <_highcode_vma_start>:
	...
20100008:	20100314          	.word	0x20100314
2010000c:	20100316          	.word	0x20100316
20100010:	00000000          	.word	0x00000000
20100014:	20100774          	.word	0x20100774
	...
20100020:	20100774          	.word	0x20100774
20100024:	20100774          	.word	0x20100774
	...
20100030:	20100774          	.word	0x20100774
20100034:	20100774          	.word	0x20100774
20100038:	20100774          	.word	0x20100774
2010003c:	00000000          	.word	0x00000000
20100040:	20100774          	.word	0x20100774
20100044:	20100774          	.word	0x20100774
20100048:	20100774          	.word	0x20100774
2010004c:	20100774          	.word	0x20100774
	...
20100070:	20100774          	.word	0x20100774
	...
20100080:	20100774          	.word	0x20100774
20100084:	20100774          	.word	0x20100774
20100088:	20100774          	.word	0x20100774
2010008c:	20100774          	.word	0x20100774
20100090:	20100774          	.word	0x20100774
20100094:	20100774          	.word	0x20100774
20100098:	20100774          	.word	0x20100774
2010009c:	20100774          	.word	0x20100774
201000a0:	20100774          	.word	0x20100774
201000a4:	20100774          	.word	0x20100774
201000a8:	20100774          	.word	0x20100774
201000ac:	20100774          	.word	0x20100774
201000b0:	20100774          	.word	0x20100774
201000b4:	20100774          	.word	0x20100774
201000b8:	20100774          	.word	0x20100774
201000bc:	20100774          	.word	0x20100774
201000c0:	20100774          	.word	0x20100774
201000c4:	20100774          	.word	0x20100774
201000c8:	20100774          	.word	0x20100774
201000cc:	20100774          	.word	0x20100774
201000d0:	20100774          	.word	0x20100774
201000d4:	20100774          	.word	0x20100774
201000d8:	20100774          	.word	0x20100774
201000dc:	20100774          	.word	0x20100774
201000e0:	20100774          	.word	0x20100774
201000e4:	20100774          	.word	0x20100774
201000e8:	20100774          	.word	0x20100774
201000ec:	20100774          	.word	0x20100774
201000f0:	20100774          	.word	0x20100774
201000f4:	20100774          	.word	0x20100774
201000f8:	20100774          	.word	0x20100774
201000fc:	20100774          	.word	0x20100774
20100100:	20100774          	.word	0x20100774
20100104:	20100774          	.word	0x20100774
20100108:	20100774          	.word	0x20100774
2010010c:	20100774          	.word	0x20100774
20100110:	20100774          	.word	0x20100774
20100114:	20100774          	.word	0x20100774
20100118:	20100774          	.word	0x20100774
2010011c:	20100774          	.word	0x20100774
20100120:	20100774          	.word	0x20100774
20100124:	20100774          	.word	0x20100774
20100128:	20100774          	.word	0x20100774
2010012c:	20100774          	.word	0x20100774
20100130:	20100774          	.word	0x20100774
20100134:	20100774          	.word	0x20100774
20100138:	20100774          	.word	0x20100774
2010013c:	20100774          	.word	0x20100774
20100140:	20100774          	.word	0x20100774
20100144:	20100774          	.word	0x20100774
20100148:	20100774          	.word	0x20100774
2010014c:	20100774          	.word	0x20100774
20100150:	20100326          	.word	0x20100326
20100154:	2010032e          	.word	0x2010032e
20100158:	20100774          	.word	0x20100774
2010015c:	20100774          	.word	0x20100774
20100160:	20100774          	.word	0x20100774
20100164:	20100774          	.word	0x20100774
20100168:	20100774          	.word	0x20100774
2010016c:	20100774          	.word	0x20100774
20100170:	20100774          	.word	0x20100774
20100174:	20100774          	.word	0x20100774
20100178:	20100774          	.word	0x20100774
2010017c:	20100774          	.word	0x20100774
20100180:	20100774          	.word	0x20100774
20100184:	20100774          	.word	0x20100774
20100188:	20100774          	.word	0x20100774
2010018c:	20101f80          	.word	0x20101f80
20100190:	20100774          	.word	0x20100774
20100194:	20100774          	.word	0x20100774
20100198:	20100774          	.word	0x20100774
2010019c:	20100774          	.word	0x20100774
201001a0:	20100774          	.word	0x20100774
201001a4:	20100774          	.word	0x20100774
201001a8:	20100774          	.word	0x20100774
201001ac:	20100774          	.word	0x20100774
201001b0:	20100774          	.word	0x20100774
201001b4:	20100774          	.word	0x20100774
201001b8:	20100774          	.word	0x20100774
201001bc:	20100774          	.word	0x20100774
201001c0:	20100774          	.word	0x20100774
201001c4:	20100774          	.word	0x20100774
201001c8:	20100774          	.word	0x20100774
201001cc:	20100774          	.word	0x20100774
201001d0:	20100774          	.word	0x20100774
201001d4:	20100774          	.word	0x20100774
201001d8:	20100774          	.word	0x20100774
201001dc:	20100774          	.word	0x20100774
201001e0:	20100774          	.word	0x20100774
201001e4:	20100774          	.word	0x20100774
201001e8:	20100774          	.word	0x20100774
201001ec:	20100774          	.word	0x20100774
201001f0:	20100774          	.word	0x20100774
201001f4:	20100774          	.word	0x20100774
201001f8:	00000000          	.word	0x00000000
201001fc:	20100774          	.word	0x20100774
20100200:	20100774          	.word	0x20100774
	...
2010020c:	20100774          	.word	0x20100774
	...
20100218:	20100774          	.word	0x20100774
2010021c:	20100774          	.word	0x20100774
20100220:	20100774          	.word	0x20100774
20100224:	20100774          	.word	0x20100774
20100228:	20100774          	.word	0x20100774
2010022c:	20100774          	.word	0x20100774
20100230:	20100774          	.word	0x20100774
20100234:	20100774          	.word	0x20100774
20100238:	20100774          	.word	0x20100774
2010023c:	20100774          	.word	0x20100774
20100240:	20100774          	.word	0x20100774
20100244:	20100774          	.word	0x20100774
20100248:	20100774          	.word	0x20100774
2010024c:	20100774          	.word	0x20100774
20100250:	20100774          	.word	0x20100774

20100254 <__riscv_save_12>:
20100254:	7139                	addi	sp,sp,-64
20100256:	4301                	li	t1,0
20100258:	c66e                	sw	s11,12(sp)
2010025a:	a019                	j	20100260 <__riscv_save_10+0x4>

2010025c <__riscv_save_10>:
2010025c:	7139                	addi	sp,sp,-64
2010025e:	5341                	li	t1,-16
20100260:	c86a                	sw	s10,16(sp)
20100262:	ca66                	sw	s9,20(sp)
20100264:	cc62                	sw	s8,24(sp)
20100266:	ce5e                	sw	s7,28(sp)
20100268:	a019                	j	2010026e <__riscv_save_4+0x4>

2010026a <__riscv_save_4>:
2010026a:	7139                	addi	sp,sp,-64
2010026c:	5301                	li	t1,-32
2010026e:	d05a                	sw	s6,32(sp)
20100270:	d256                	sw	s5,36(sp)
20100272:	d452                	sw	s4,40(sp)
20100274:	d64e                	sw	s3,44(sp)
20100276:	d84a                	sw	s2,48(sp)
20100278:	da26                	sw	s1,52(sp)
2010027a:	dc22                	sw	s0,56(sp)
2010027c:	de06                	sw	ra,60(sp)
2010027e:	40610133          	sub	sp,sp,t1
20100282:	8282                	jr	t0

20100284 <__riscv_save_0>:
20100284:	1141                	addi	sp,sp,-16
20100286:	c04a                	sw	s2,0(sp)
20100288:	c226                	sw	s1,4(sp)
2010028a:	c422                	sw	s0,8(sp)
2010028c:	c606                	sw	ra,12(sp)
2010028e:	8282                	jr	t0

20100290 <__riscv_restore_12>:
20100290:	4db2                	lw	s11,12(sp)
20100292:	0141                	addi	sp,sp,16

20100294 <__riscv_restore_10>:
20100294:	4d02                	lw	s10,0(sp)
20100296:	4c92                	lw	s9,4(sp)
20100298:	4c22                	lw	s8,8(sp)
2010029a:	4bb2                	lw	s7,12(sp)
2010029c:	0141                	addi	sp,sp,16

2010029e <__riscv_restore_4>:
2010029e:	4b02                	lw	s6,0(sp)
201002a0:	4a92                	lw	s5,4(sp)
201002a2:	4a22                	lw	s4,8(sp)
201002a4:	49b2                	lw	s3,12(sp)
201002a6:	0141                	addi	sp,sp,16

201002a8 <__riscv_restore_0>:
201002a8:	4902                	lw	s2,0(sp)
201002aa:	4492                	lw	s1,4(sp)
201002ac:	4422                	lw	s0,8(sp)
201002ae:	40b2                	lw	ra,12(sp)
201002b0:	0141                	addi	sp,sp,16
201002b2:	8082                	ret

201002b4 <memcpy>:
201002b4:	832a                	mv	t1,a0
201002b6:	ca09                	beqz	a2,201002c8 <memcpy+0x14>
201002b8:	00058383          	lb	t2,0(a1)
201002bc:	00730023          	sb	t2,0(t1) # 1000000 <_data_lma+0xff9c00>
201002c0:	167d                	addi	a2,a2,-1
201002c2:	0305                	addi	t1,t1,1
201002c4:	0585                	addi	a1,a1,1
201002c6:	fa6d                	bnez	a2,201002b8 <memcpy+0x4>
201002c8:	8082                	ret

201002ca <memset>:
201002ca:	832a                	mv	t1,a0
201002cc:	c611                	beqz	a2,201002d8 <memset+0xe>
201002ce:	00b30023          	sb	a1,0(t1)
201002d2:	167d                	addi	a2,a2,-1
201002d4:	0305                	addi	t1,t1,1
201002d6:	fe65                	bnez	a2,201002ce <memset+0x4>
201002d8:	8082                	ret

201002da <strcmp>:
201002da:	2110                	lbu	a2,0(a0)
201002dc:	2194                	lbu	a3,0(a1)
201002de:	0505                	addi	a0,a0,1
201002e0:	0585                	addi	a1,a1,1
201002e2:	00d61363          	bne	a2,a3,201002e8 <strcmp+0xe>
201002e6:	fa75                	bnez	a2,201002da <strcmp>
201002e8:	40d60533          	sub	a0,a2,a3
201002ec:	8082                	ret

201002ee <memmove>:
201002ee:	c215                	beqz	a2,20100312 <memmove+0x24>
201002f0:	832a                	mv	t1,a0
201002f2:	4685                	li	a3,1
201002f4:	00b56763          	bltu	a0,a1,20100302 <memmove+0x14>
201002f8:	56fd                	li	a3,-1
201002fa:	fff60713          	addi	a4,a2,-1
201002fe:	933a                	add	t1,t1,a4
20100300:	95ba                	add	a1,a1,a4
20100302:	00058383          	lb	t2,0(a1)
20100306:	00730023          	sb	t2,0(t1)
2010030a:	167d                	addi	a2,a2,-1
2010030c:	9336                	add	t1,t1,a3
2010030e:	95b6                	add	a1,a1,a3
20100310:	fa6d                	bnez	a2,20100302 <memmove+0x14>
20100312:	8082                	ret

20100314 <NMI_Handler>:
20100314:	a001                	j	20100314 <NMI_Handler>

20100316 <HardFault_Handler>:
20100316:	e000e737          	lui	a4,0xe000e
2010031a:	beef07b7          	lui	a5,0xbeef0
2010031e:	08078793          	addi	a5,a5,128 # beef0080 <_eusrstack+0x9ed70080>
20100322:	c73c                	sw	a5,72(a4)
20100324:	a001                	j	20100324 <HardFault_Handler+0xe>

20100326 <USART3_IRQHandler>:
20100326:	20f010ef          	jal	ra,20101d34 <ATK_MS901M_UART_IRQHandler>
2010032a:	30200073          	mret

2010032e <USART4_IRQHandler>:
2010032e:	645020ef          	jal	ra,20103172 <SENSOR_GPS_UART_IRQHandler>
20100332:	30200073          	mret

20100336 <main>:
20100336:	f4fff2ef          	jal	t0,20100284 <__riscv_save_0>
2010033a:	2a59                	jal	201004d0 <SystemInit>
2010033c:	2c31                	jal	20100558 <SystemAndCoreClockUpdate>
2010033e:	6f1020ef          	jal	ra,2010322e <Delay_Init>
20100342:	6571                	lui	a0,0x1c
20100344:	20050513          	addi	a0,a0,512 # 1c200 <_data_lma+0x15e00>
20100348:	781020ef          	jal	ra,201032c8 <USART_Printf_Init>
2010034c:	3e800513          	li	a0,1000
20100350:	73f020ef          	jal	ra,2010328e <Delay_Ms>
20100354:	8081a583          	lw	a1,-2040(gp) # 201101e8 <SystemClock>
20100358:	20106537          	lui	a0,0x20106
2010035c:	99850513          	addi	a0,a0,-1640 # 20105998 <_read+0xe>
20100360:	727030ef          	jal	ra,20104286 <iprintf>
20100364:	201107b7          	lui	a5,0x20110
20100368:	1e47a583          	lw	a1,484(a5) # 201101e4 <SystemCoreClock>
2010036c:	20106537          	lui	a0,0x20106
20100370:	9a850513          	addi	a0,a0,-1624 # 201059a8 <_read+0x1e>
20100374:	713030ef          	jal	ra,20104286 <iprintf>
20100378:	06400513          	li	a0,100
2010037c:	713020ef          	jal	ra,2010328e <Delay_Ms>
20100380:	24e030ef          	jal	ra,201035ce <Hardware>
20100384:	a001                	j	20100384 <main+0x4e>

20100386 <SetSYSCLK_400M_CoreCLK_V5F_400M_V3F_100M_HSE>:
20100386:	1141                	addi	sp,sp,-16
20100388:	c602                	sw	zero,12(sp)
2010038a:	c402                	sw	zero,8(sp)
2010038c:	c202                	sw	zero,4(sp)
2010038e:	40021737          	lui	a4,0x40021
20100392:	431c                	lw	a5,0(a4)
20100394:	29079793          	bseti	a5,a5,0x10
20100398:	c31c                	sw	a5,0(a4)
2010039a:	400217b7          	lui	a5,0x40021
2010039e:	439c                	lw	a5,0(a5)
201003a0:	00020737          	lui	a4,0x20
201003a4:	8ff9                	and	a5,a5,a4
201003a6:	c43e                	sw	a5,8(sp)
201003a8:	47b2                	lw	a5,12(sp)
201003aa:	0785                	addi	a5,a5,1 # 40021001 <_eusrstack+0x1fea1001>
201003ac:	c63e                	sw	a5,12(sp)
201003ae:	47a2                	lw	a5,8(sp)
201003b0:	e791                	bnez	a5,201003bc <SetSYSCLK_400M_CoreCLK_V5F_400M_V3F_100M_HSE+0x36>
201003b2:	4732                	lw	a4,12(sp)
201003b4:	010007b7          	lui	a5,0x1000
201003b8:	fef711e3          	bne	a4,a5,2010039a <SetSYSCLK_400M_CoreCLK_V5F_400M_V3F_100M_HSE+0x14>
201003bc:	400217b7          	lui	a5,0x40021
201003c0:	439c                	lw	a5,0(a5)
201003c2:	00020737          	lui	a4,0x20
201003c6:	8ff9                	and	a5,a5,a4
201003c8:	cb89                	beqz	a5,201003da <SetSYSCLK_400M_CoreCLK_V5F_400M_V3F_100M_HSE+0x54>
201003ca:	4785                	li	a5,1
201003cc:	c43e                	sw	a5,8(sp)
201003ce:	4722                	lw	a4,8(sp)
201003d0:	4785                	li	a5,1
201003d2:	00f70663          	beq	a4,a5,201003de <SetSYSCLK_400M_CoreCLK_V5F_400M_V3F_100M_HSE+0x58>
201003d6:	0141                	addi	sp,sp,16
201003d8:	8082                	ret
201003da:	c402                	sw	zero,8(sp)
201003dc:	bfcd                	j	201003ce <SetSYSCLK_400M_CoreCLK_V5F_400M_V3F_100M_HSE+0x48>
201003de:	400217b7          	lui	a5,0x40021
201003e2:	4798                	lw	a4,8(a5)
201003e4:	9b01                	andi	a4,a4,-32
201003e6:	c798                	sw	a4,8(a5)
201003e8:	4798                	lw	a4,8(a5)
201003ea:	01076713          	ori	a4,a4,16
201003ee:	c798                	sw	a4,8(a5)
201003f0:	4798                	lw	a4,8(a5)
201003f2:	76f1                	lui	a3,0xffffc
201003f4:	0ff68693          	addi	a3,a3,255 # ffffc0ff <_eusrstack+0xdfe7c0ff>
201003f8:	8f75                	and	a4,a4,a3
201003fa:	c798                	sw	a4,8(a5)
201003fc:	4798                	lw	a4,8(a5)
201003fe:	c798                	sw	a4,8(a5)
20100400:	4798                	lw	a4,8(a5)
20100402:	f1f77713          	andi	a4,a4,-225
20100406:	c798                	sw	a4,8(a5)
20100408:	4798                	lw	a4,8(a5)
2010040a:	02076713          	ori	a4,a4,32
2010040e:	c798                	sw	a4,8(a5)
20100410:	400217b7          	lui	a5,0x40021
20100414:	479c                	lw	a5,8(a5)
20100416:	0e07f793          	andi	a5,a5,224
2010041a:	02000713          	li	a4,32
2010041e:	fee799e3          	bne	a5,a4,20100410 <SetSYSCLK_400M_CoreCLK_V5F_400M_V3F_100M_HSE+0x8a>
20100422:	40021737          	lui	a4,0x40021
20100426:	431c                	lw	a5,0(a4)
20100428:	29879793          	bseti	a5,a5,0x18
2010042c:	c31c                	sw	a5,0(a4)
2010042e:	400217b7          	lui	a5,0x40021
20100432:	439c                	lw	a5,0(a5)
20100434:	02000737          	lui	a4,0x2000
20100438:	8ff9                	and	a5,a5,a4
2010043a:	dbf5                	beqz	a5,2010042e <SetSYSCLK_400M_CoreCLK_V5F_400M_V3F_100M_HSE+0xa8>
2010043c:	400217b7          	lui	a5,0x40021
20100440:	4798                	lw	a4,8(a5)
20100442:	49f71713          	bclri	a4,a4,0x1f
20100446:	c798                	sw	a4,8(a5)
20100448:	4798                	lw	a4,8(a5)
2010044a:	900006b7          	lui	a3,0x90000
2010044e:	16fd                	addi	a3,a3,-1 # 8fffffff <_eusrstack+0x6fe7ffff>
20100450:	8f75                	and	a4,a4,a3
20100452:	c798                	sw	a4,8(a5)
20100454:	400217b7          	lui	a5,0x40021
20100458:	479c                	lw	a5,8(a5)
2010045a:	70000737          	lui	a4,0x70000
2010045e:	8ff9                	and	a5,a5,a4
20100460:	fbf5                	bnez	a5,20100454 <SetSYSCLK_400M_CoreCLK_V5F_400M_V3F_100M_HSE+0xce>
20100462:	400217b7          	lui	a5,0x40021
20100466:	43d8                	lw	a4,4(a5)
20100468:	f0f77713          	andi	a4,a4,-241
2010046c:	c3d8                	sw	a4,4(a5)
2010046e:	43d8                	lw	a4,4(a5)
20100470:	c3d8                	sw	a4,4(a5)
20100472:	43d8                	lw	a4,4(a5)
20100474:	fffd06b7          	lui	a3,0xfffd0
20100478:	16fd                	addi	a3,a3,-1 # fffcffff <_eusrstack+0xdfe4ffff>
2010047a:	8f75                	and	a4,a4,a3
2010047c:	c3d8                	sw	a4,4(a5)
2010047e:	43d8                	lw	a4,4(a5)
20100480:	29171713          	bseti	a4,a4,0x11
20100484:	c3d8                	sw	a4,4(a5)
20100486:	400226b7          	lui	a3,0x40022
2010048a:	4298                	lw	a4,0(a3)
2010048c:	c23a                	sw	a4,4(sp)
2010048e:	4712                	lw	a4,4(sp)
20100490:	9b71                	andi	a4,a4,-4
20100492:	c23a                	sw	a4,4(sp)
20100494:	4712                	lw	a4,4(sp)
20100496:	00176713          	ori	a4,a4,1
2010049a:	c23a                	sw	a4,4(sp)
2010049c:	4712                	lw	a4,4(sp)
2010049e:	c298                	sw	a4,0(a3)
201004a0:	4798                	lw	a4,8(a5)
201004a2:	29f71713          	bseti	a4,a4,0x1f
201004a6:	c798                	sw	a4,8(a5)
201004a8:	43d8                	lw	a4,4(a5)
201004aa:	9b71                	andi	a4,a4,-4
201004ac:	c3d8                	sw	a4,4(a5)
201004ae:	43d8                	lw	a4,4(a5)
201004b0:	00276713          	ori	a4,a4,2
201004b4:	c3d8                	sw	a4,4(a5)
201004b6:	400217b7          	lui	a5,0x40021
201004ba:	43dc                	lw	a5,4(a5)
201004bc:	8bb1                	andi	a5,a5,12
201004be:	4721                	li	a4,8
201004c0:	fee79be3          	bne	a5,a4,201004b6 <SetSYSCLK_400M_CoreCLK_V5F_400M_V3F_100M_HSE+0x130>
201004c4:	bf09                	j	201003d6 <SetSYSCLK_400M_CoreCLK_V5F_400M_V3F_100M_HSE+0x50>

201004c6 <SetSysClock>:
201004c6:	dbfff2ef          	jal	t0,20100284 <__riscv_save_0>
201004ca:	2bf5                	jal	20100ac6 <GPIO_IPD_Unused>
201004cc:	3d6d                	jal	20100386 <SetSYSCLK_400M_CoreCLK_V5F_400M_V3F_100M_HSE>
201004ce:	bbe9                	j	201002a8 <__riscv_restore_0>

201004d0 <SystemInit>:
201004d0:	400217b7          	lui	a5,0x40021
201004d4:	4398                	lw	a4,0(a5)
201004d6:	00176713          	ori	a4,a4,1
201004da:	c398                	sw	a4,0(a5)
201004dc:	43d8                	lw	a4,4(a5)
201004de:	305c06b7          	lui	a3,0x305c0
201004e2:	8f75                	and	a4,a4,a3
201004e4:	c3d8                	sw	a4,4(a5)
201004e6:	400217b7          	lui	a5,0x40021
201004ea:	43dc                	lw	a5,4(a5)
201004ec:	8bb1                	andi	a5,a5,12
201004ee:	ffe5                	bnez	a5,201004e6 <SystemInit+0x16>
201004f0:	400217b7          	lui	a5,0x40021
201004f4:	43d8                	lw	a4,4(a5)
201004f6:	49671713          	bclri	a4,a4,0x16
201004fa:	c3d8                	sw	a4,4(a5)
201004fc:	4798                	lw	a4,8(a5)
201004fe:	49f71713          	bclri	a4,a4,0x1f
20100502:	c798                	sw	a4,8(a5)
20100504:	4398                	lw	a4,0(a5)
20100506:	6aa706b7          	lui	a3,0x6aa70
2010050a:	16fd                	addi	a3,a3,-1 # 6aa6ffff <_eusrstack+0x4a8effff>
2010050c:	8f75                	and	a4,a4,a3
2010050e:	c398                	sw	a4,0(a5)
20100510:	4398                	lw	a4,0(a5)
20100512:	49271713          	bclri	a4,a4,0x12
20100516:	c398                	sw	a4,0(a5)
20100518:	4798                	lw	a4,8(a5)
2010051a:	0fffc6b7          	lui	a3,0xfffc
2010051e:	8f75                	and	a4,a4,a3
20100520:	c798                	sw	a4,8(a5)
20100522:	4798                	lw	a4,8(a5)
20100524:	00476713          	ori	a4,a4,4
20100528:	c798                	sw	a4,8(a5)
2010052a:	00ff0737          	lui	a4,0xff0
2010052e:	c7d8                	sw	a4,12(a5)
20100530:	5b98                	lw	a4,48(a5)
20100532:	0c6006b7          	lui	a3,0xc600
20100536:	8f75                	and	a4,a4,a3
20100538:	db98                	sw	a4,48(a5)
2010053a:	5bd8                	lw	a4,52(a5)
2010053c:	fff0e6b7          	lui	a3,0xfff0e
20100540:	08068693          	addi	a3,a3,128 # fff0e080 <_eusrstack+0xdfd8e080>
20100544:	8f75                	and	a4,a4,a3
20100546:	dbd8                	sw	a4,52(a5)
20100548:	5bd8                	lw	a4,52(a5)
2010054a:	000806b7          	lui	a3,0x80
2010054e:	02068693          	addi	a3,a3,32 # 80020 <_data_lma+0x79c20>
20100552:	8f55                	or	a4,a4,a3
20100554:	dbd8                	sw	a4,52(a5)
20100556:	bf85                	j	201004c6 <SetSysClock>

20100558 <SystemAndCoreClockUpdate>:
20100558:	40021737          	lui	a4,0x40021
2010055c:	435c                	lw	a5,4(a4)
2010055e:	8bb1                	andi	a5,a5,12
20100560:	4718                	lw	a4,8(a4)
20100562:	700006b7          	lui	a3,0x70000
20100566:	8f75                	and	a4,a4,a3
20100568:	4691                	li	a3,4
2010056a:	06d78c63          	beq	a5,a3,201005e2 <SystemAndCoreClockUpdate+0x8a>
2010056e:	46a1                	li	a3,8
20100570:	08d78063          	beq	a5,a3,201005f0 <SystemAndCoreClockUpdate+0x98>
20100574:	cb81                	beqz	a5,20100584 <SystemAndCoreClockUpdate+0x2c>
20100576:	017d87b7          	lui	a5,0x17d8
2010057a:	84078793          	addi	a5,a5,-1984 # 17d7840 <_data_lma+0x17d1440>
2010057e:	80f1a423          	sw	a5,-2040(gp) # 201101e8 <SystemClock>
20100582:	a039                	j	20100590 <SystemAndCoreClockUpdate+0x38>
20100584:	017d87b7          	lui	a5,0x17d8
20100588:	84078793          	addi	a5,a5,-1984 # 17d7840 <_data_lma+0x17d1440>
2010058c:	80f1a423          	sw	a5,-2040(gp) # 201101e8 <SystemClock>
20100590:	400216b7          	lui	a3,0x40021
20100594:	42d8                	lw	a4,4(a3)
20100596:	8311                	srli	a4,a4,0x4
20100598:	8b3d                	andi	a4,a4,15
2010059a:	201107b7          	lui	a5,0x20110
2010059e:	11078793          	addi	a5,a5,272 # 20110110 <HBPrescTB>
201005a2:	97ba                	add	a5,a5,a4
201005a4:	239c                	lbu	a5,0(a5)
201005a6:	8081a703          	lw	a4,-2040(gp) # 201101e8 <SystemClock>
201005aa:	00f75733          	srl	a4,a4,a5
201005ae:	42dc                	lw	a5,4(a3)
201005b0:	83c1                	srli	a5,a5,0x10
201005b2:	8b8d                	andi	a5,a5,3
201005b4:	201106b7          	lui	a3,0x20110
201005b8:	1e068693          	addi	a3,a3,480 # 201101e0 <FPRETB>
201005bc:	97b6                	add	a5,a5,a3
201005be:	239c                	lbu	a5,0(a5)
201005c0:	00f757b3          	srl	a5,a4,a5
201005c4:	84f1a023          	sw	a5,-1984(gp) # 20110220 <HCLKClock>
201005c8:	e000f6b7          	lui	a3,0xe000f
201005cc:	d106a683          	lw	a3,-752(a3) # e000ed10 <_eusrstack+0xbfe8ed10>
201005d0:	6641                	lui	a2,0x10
201005d2:	8ef1                	and	a3,a3,a2
201005d4:	18069b63          	bnez	a3,2010076a <SystemAndCoreClockUpdate+0x212>
201005d8:	20110737          	lui	a4,0x20110
201005dc:	1ef72223          	sw	a5,484(a4) # 201101e4 <SystemCoreClock>
201005e0:	8082                	ret
201005e2:	017d87b7          	lui	a5,0x17d8
201005e6:	84078793          	addi	a5,a5,-1984 # 17d7840 <_data_lma+0x17d1440>
201005ea:	80f1a423          	sw	a5,-2040(gp) # 201101e8 <SystemClock>
201005ee:	b74d                	j	20100590 <SystemAndCoreClockUpdate+0x38>
201005f0:	500007b7          	lui	a5,0x50000
201005f4:	12f70963          	beq	a4,a5,20100726 <SystemAndCoreClockUpdate+0x1ce>
201005f8:	02e7f163          	bgeu	a5,a4,2010061a <SystemAndCoreClockUpdate+0xc2>
201005fc:	600007b7          	lui	a5,0x60000
20100600:	12f70a63          	beq	a4,a5,20100734 <SystemAndCoreClockUpdate+0x1dc>
20100604:	700007b7          	lui	a5,0x70000
20100608:	14f71a63          	bne	a4,a5,2010075c <SystemAndCoreClockUpdate+0x204>
2010060c:	077367b7          	lui	a5,0x7736
20100610:	94078793          	addi	a5,a5,-1728 # 7735940 <_data_lma+0x772f540>
20100614:	80f1a423          	sw	a5,-2040(gp) # 201101e8 <SystemClock>
20100618:	bfa5                	j	20100590 <SystemAndCoreClockUpdate+0x38>
2010061a:	cf01                	beqz	a4,20100632 <SystemAndCoreClockUpdate+0xda>
2010061c:	400007b7          	lui	a5,0x40000
20100620:	12f71e63          	bne	a4,a5,2010075c <SystemAndCoreClockUpdate+0x204>
20100624:	1c9c47b7          	lui	a5,0x1c9c4
20100628:	80078793          	addi	a5,a5,-2048 # 1c9c3800 <_data_lma+0x1c9bd400>
2010062c:	80f1a423          	sw	a5,-2040(gp) # 201101e8 <SystemClock>
20100630:	b785                	j	20100590 <SystemAndCoreClockUpdate+0x38>
20100632:	400217b7          	lui	a5,0x40021
20100636:	4794                	lw	a3,8(a5)
20100638:	8afd                	andi	a3,a3,31
2010063a:	4798                	lw	a4,8(a5)
2010063c:	0e077713          	andi	a4,a4,224
20100640:	479c                	lw	a5,8(a5)
20100642:	83a1                	srli	a5,a5,0x8
20100644:	03f7f793          	andi	a5,a5,63
20100648:	0785                	addi	a5,a5,1 # 40021001 <_eusrstack+0x1fea1001>
2010064a:	0a000613          	li	a2,160
2010064e:	02c70963          	beq	a4,a2,20100680 <SystemAndCoreClockUpdate+0x128>
20100652:	0e000613          	li	a2,224
20100656:	06c70463          	beq	a4,a2,201006be <SystemAndCoreClockUpdate+0x166>
2010065a:	08000613          	li	a2,128
2010065e:	08c70463          	beq	a4,a2,201006e6 <SystemAndCoreClockUpdate+0x18e>
20100662:	0c000613          	li	a2,192
20100666:	08c70763          	beq	a4,a2,201006f4 <SystemAndCoreClockUpdate+0x19c>
2010066a:	02000613          	li	a2,32
2010066e:	08c70a63          	beq	a4,a2,20100702 <SystemAndCoreClockUpdate+0x1aa>
20100672:	017d8737          	lui	a4,0x17d8
20100676:	84070713          	addi	a4,a4,-1984 # 17d7840 <_data_lma+0x17d1440>
2010067a:	02f757b3          	divu	a5,a4,a5
2010067e:	a039                	j	2010068c <SystemAndCoreClockUpdate+0x134>
20100680:	1dcd6737          	lui	a4,0x1dcd6
20100684:	50070713          	addi	a4,a4,1280 # 1dcd6500 <_data_lma+0x1dcd0100>
20100688:	02f757b3          	divu	a5,a4,a5
2010068c:	4711                	li	a4,4
2010068e:	00e68c63          	beq	a3,a4,201006a6 <SystemAndCoreClockUpdate+0x14e>
20100692:	ffa68613          	addi	a2,a3,-6
20100696:	4719                	li	a4,6
20100698:	06c76c63          	bltu	a4,a2,20100710 <SystemAndCoreClockUpdate+0x1b8>
2010069c:	05500713          	li	a4,85
201006a0:	48c75733          	bext	a4,a4,a2
201006a4:	c735                	beqz	a4,20100710 <SystemAndCoreClockUpdate+0x1b8>
201006a6:	20110737          	lui	a4,0x20110
201006aa:	12070713          	addi	a4,a4,288 # 20110120 <PLLMULTB>
201006ae:	9736                	add	a4,a4,a3
201006b0:	2318                	lbu	a4,0(a4)
201006b2:	02f707b3          	mul	a5,a4,a5
201006b6:	8385                	srli	a5,a5,0x1
201006b8:	80f1a423          	sw	a5,-2040(gp) # 201101e8 <SystemClock>
201006bc:	bdd1                	j	20100590 <SystemAndCoreClockUpdate+0x38>
201006be:	40021737          	lui	a4,0x40021
201006c2:	5b50                	lw	a2,52(a4)
201006c4:	8241                	srli	a2,a2,0x10
201006c6:	20110737          	lui	a4,0x20110
201006ca:	10070713          	addi	a4,a4,256 # 20110100 <SERDESPLLMULTB>
201006ce:	9732                	add	a4,a4,a2
201006d0:	2318                	lbu	a4,0(a4)
201006d2:	017d8637          	lui	a2,0x17d8
201006d6:	84060613          	addi	a2,a2,-1984 # 17d7840 <_data_lma+0x17d1440>
201006da:	02c70733          	mul	a4,a4,a2
201006de:	8305                	srli	a4,a4,0x1
201006e0:	02f757b3          	divu	a5,a4,a5
201006e4:	b765                	j	2010068c <SystemAndCoreClockUpdate+0x134>
201006e6:	1c9c4737          	lui	a4,0x1c9c4
201006ea:	80070713          	addi	a4,a4,-2048 # 1c9c3800 <_data_lma+0x1c9bd400>
201006ee:	02f757b3          	divu	a5,a4,a5
201006f2:	bf69                	j	2010068c <SystemAndCoreClockUpdate+0x134>
201006f4:	07736737          	lui	a4,0x7736
201006f8:	94070713          	addi	a4,a4,-1728 # 7735940 <_data_lma+0x772f540>
201006fc:	02f757b3          	divu	a5,a4,a5
20100700:	b771                	j	2010068c <SystemAndCoreClockUpdate+0x134>
20100702:	017d8737          	lui	a4,0x17d8
20100706:	84070713          	addi	a4,a4,-1984 # 17d7840 <_data_lma+0x17d1440>
2010070a:	02f757b3          	divu	a5,a4,a5
2010070e:	bfbd                	j	2010068c <SystemAndCoreClockUpdate+0x134>
20100710:	20110737          	lui	a4,0x20110
20100714:	12070713          	addi	a4,a4,288 # 20110120 <PLLMULTB>
20100718:	9736                	add	a4,a4,a3
2010071a:	2318                	lbu	a4,0(a4)
2010071c:	02f707b3          	mul	a5,a4,a5
20100720:	80f1a423          	sw	a5,-2040(gp) # 201101e8 <SystemClock>
20100724:	b5b5                	j	20100590 <SystemAndCoreClockUpdate+0x38>
20100726:	1dcd67b7          	lui	a5,0x1dcd6
2010072a:	50078793          	addi	a5,a5,1280 # 1dcd6500 <_data_lma+0x1dcd0100>
2010072e:	80f1a423          	sw	a5,-2040(gp) # 201101e8 <SystemClock>
20100732:	bdb9                	j	20100590 <SystemAndCoreClockUpdate+0x38>
20100734:	400217b7          	lui	a5,0x40021
20100738:	5bd8                	lw	a4,52(a5)
2010073a:	8341                	srli	a4,a4,0x10
2010073c:	201107b7          	lui	a5,0x20110
20100740:	10078793          	addi	a5,a5,256 # 20110100 <SERDESPLLMULTB>
20100744:	97ba                	add	a5,a5,a4
20100746:	239c                	lbu	a5,0(a5)
20100748:	017d8737          	lui	a4,0x17d8
2010074c:	84070713          	addi	a4,a4,-1984 # 17d7840 <_data_lma+0x17d1440>
20100750:	02e787b3          	mul	a5,a5,a4
20100754:	8385                	srli	a5,a5,0x1
20100756:	80f1a423          	sw	a5,-2040(gp) # 201101e8 <SystemClock>
2010075a:	bd1d                	j	20100590 <SystemAndCoreClockUpdate+0x38>
2010075c:	017d87b7          	lui	a5,0x17d8
20100760:	84078793          	addi	a5,a5,-1984 # 17d7840 <_data_lma+0x17d1440>
20100764:	80f1a423          	sw	a5,-2040(gp) # 201101e8 <SystemClock>
20100768:	b525                	j	20100590 <SystemAndCoreClockUpdate+0x38>
2010076a:	201107b7          	lui	a5,0x20110
2010076e:	1ee7a223          	sw	a4,484(a5) # 201101e4 <SystemCoreClock>
20100772:	8082                	ret

20100774 <ADC1_2_IRQHandler>:
20100774:	a001                	j	20100774 <ADC1_2_IRQHandler>

20100776 <FLASH_BOOT_GetMode>:
20100776:	1101                	addi	sp,sp,-32
20100778:	ce06                	sw	ra,28(sp)
2010077a:	cc22                	sw	s0,24(sp)
2010077c:	1000                	addi	s0,sp,32
2010077e:	080007b7          	lui	a5,0x8000
20100782:	439c                	lw	a5,0(a5)
20100784:	fef42623          	sw	a5,-20(s0)
20100788:	2015                	jal	201007ac <FLASH_GetUserOptionByte>
2010078a:	87aa                	mv	a5,a0
2010078c:	fef42623          	sw	a5,-20(s0)
20100790:	fec42783          	lw	a5,-20(s0)
20100794:	f007f793          	andi	a5,a5,-256
20100798:	fef42623          	sw	a5,-20(s0)
2010079c:	fec42783          	lw	a5,-20(s0)
201007a0:	8399                	srli	a5,a5,0x6
201007a2:	853e                	mv	a0,a5
201007a4:	40f2                	lw	ra,28(sp)
201007a6:	4462                	lw	s0,24(sp)
201007a8:	6105                	addi	sp,sp,32
201007aa:	8082                	ret

201007ac <FLASH_GetUserOptionByte>:
201007ac:	400227b7          	lui	a5,0x40022
201007b0:	4fc8                	lw	a0,28(a5)
201007b2:	8109                	srli	a0,a0,0x2
201007b4:	8082                	ret

201007b6 <GPIO_Init>:
201007b6:	459c                	lw	a5,8(a1)
201007b8:	00f7f813          	andi	a6,a5,15
201007bc:	8bc1                	andi	a5,a5,16
201007be:	cf8d                	beqz	a5,201007f8 <GPIO_Init+0x42>
201007c0:	00186813          	ori	a6,a6,1
201007c4:	4d50                	lw	a2,28(a0)
201007c6:	4701                	li	a4,0
201007c8:	a011                	j	201007cc <GPIO_Init+0x16>
201007ca:	0705                	addi	a4,a4,1
201007cc:	47bd                	li	a5,15
201007ce:	02e7e463          	bltu	a5,a4,201007f6 <GPIO_Init+0x40>
201007d2:	28e017b3          	bset	a5,zero,a4
201007d6:	2196                	lhu	a3,0(a1)
201007d8:	8efd                	and	a3,a3,a5
201007da:	fed798e3          	bne	a5,a3,201007ca <GPIO_Init+0x14>
201007de:	00171693          	slli	a3,a4,0x1
201007e2:	478d                	li	a5,3
201007e4:	00d797b3          	sll	a5,a5,a3
201007e8:	40f67633          	andn	a2,a2,a5
201007ec:	41dc                	lw	a5,4(a1)
201007ee:	00d797b3          	sll	a5,a5,a3
201007f2:	8e5d                	or	a2,a2,a5
201007f4:	bfd9                	j	201007ca <GPIO_Init+0x14>
201007f6:	cd50                	sw	a2,28(a0)
201007f8:	219c                	lbu	a5,0(a1)
201007fa:	c7a9                	beqz	a5,20100844 <GPIO_Init+0x8e>
201007fc:	4110                	lw	a2,0(a0)
201007fe:	4781                	li	a5,0
20100800:	a019                	j	20100806 <GPIO_Init+0x50>
20100802:	c954                	sw	a3,20(a0)
20100804:	0785                	addi	a5,a5,1 # 40022001 <_eusrstack+0x1fea2001>
20100806:	471d                	li	a4,7
20100808:	02f76d63          	bltu	a4,a5,20100842 <GPIO_Init+0x8c>
2010080c:	28f016b3          	bset	a3,zero,a5
20100810:	219a                	lhu	a4,0(a1)
20100812:	8f75                	and	a4,a4,a3
20100814:	fee698e3          	bne	a3,a4,20100804 <GPIO_Init+0x4e>
20100818:	00279713          	slli	a4,a5,0x2
2010081c:	48bd                	li	a7,15
2010081e:	00e898b3          	sll	a7,a7,a4
20100822:	41167633          	andn	a2,a2,a7
20100826:	00e81733          	sll	a4,a6,a4
2010082a:	8e59                	or	a2,a2,a4
2010082c:	4598                	lw	a4,8(a1)
2010082e:	02800893          	li	a7,40
20100832:	fd1708e3          	beq	a4,a7,20100802 <GPIO_Init+0x4c>
20100836:	04800893          	li	a7,72
2010083a:	fd1715e3          	bne	a4,a7,20100804 <GPIO_Init+0x4e>
2010083e:	c914                	sw	a3,16(a0)
20100840:	b7d1                	j	20100804 <GPIO_Init+0x4e>
20100842:	c110                	sw	a2,0(a0)
20100844:	219a                	lhu	a4,0(a1)
20100846:	0ff00793          	li	a5,255
2010084a:	04e7fc63          	bgeu	a5,a4,201008a2 <GPIO_Init+0xec>
2010084e:	4150                	lw	a2,4(a0)
20100850:	4701                	li	a4,0
20100852:	a021                	j	2010085a <GPIO_Init+0xa4>
20100854:	c95c                	sw	a5,20(a0)
20100856:	a82d                	j	20100890 <GPIO_Init+0xda>
20100858:	0705                	addi	a4,a4,1
2010085a:	479d                	li	a5,7
2010085c:	04e7e263          	bltu	a5,a4,201008a0 <GPIO_Init+0xea>
20100860:	00870793          	addi	a5,a4,8
20100864:	28f017b3          	bset	a5,zero,a5
20100868:	2196                	lhu	a3,0(a1)
2010086a:	8efd                	and	a3,a3,a5
2010086c:	fed796e3          	bne	a5,a3,20100858 <GPIO_Init+0xa2>
20100870:	00271693          	slli	a3,a4,0x2
20100874:	48bd                	li	a7,15
20100876:	00d898b3          	sll	a7,a7,a3
2010087a:	41167633          	andn	a2,a2,a7
2010087e:	00d816b3          	sll	a3,a6,a3
20100882:	8e55                	or	a2,a2,a3
20100884:	0085a883          	lw	a7,8(a1)
20100888:	02800693          	li	a3,40
2010088c:	fcd884e3          	beq	a7,a3,20100854 <GPIO_Init+0x9e>
20100890:	0085a883          	lw	a7,8(a1)
20100894:	04800693          	li	a3,72
20100898:	fcd890e3          	bne	a7,a3,20100858 <GPIO_Init+0xa2>
2010089c:	c91c                	sw	a5,16(a0)
2010089e:	bf6d                	j	20100858 <GPIO_Init+0xa2>
201008a0:	c150                	sw	a2,4(a0)
201008a2:	8082                	ret

201008a4 <GPIO_ReadInputDataBit>:
201008a4:	451c                	lw	a5,8(a0)
201008a6:	8dfd                	and	a1,a1,a5
201008a8:	c199                	beqz	a1,201008ae <GPIO_ReadInputDataBit+0xa>
201008aa:	4505                	li	a0,1
201008ac:	8082                	ret
201008ae:	4501                	li	a0,0
201008b0:	8082                	ret

201008b2 <GPIO_ReadOutputDataBit>:
201008b2:	455c                	lw	a5,12(a0)
201008b4:	8dfd                	and	a1,a1,a5
201008b6:	c199                	beqz	a1,201008bc <GPIO_ReadOutputDataBit+0xa>
201008b8:	4505                	li	a0,1
201008ba:	8082                	ret
201008bc:	4501                	li	a0,0
201008be:	8082                	ret

201008c0 <GPIO_SetBits>:
201008c0:	c90c                	sw	a1,16(a0)
201008c2:	8082                	ret

201008c4 <GPIO_ResetBits>:
201008c4:	c94c                	sw	a1,20(a0)
201008c6:	8082                	ret

201008c8 <GPIO_PinAFConfig>:
201008c8:	479d                	li	a5,7
201008ca:	00b7f763          	bgeu	a5,a1,201008d8 <GPIO_PinAFConfig+0x10>
201008ce:	ff858793          	addi	a5,a1,-8
201008d2:	0ff7f793          	zext.b	a5,a5
201008d6:	a011                	j	201008da <GPIO_PinAFConfig+0x12>
201008d8:	87ae                	mv	a5,a1
201008da:	40011737          	lui	a4,0x40011
201008de:	80070713          	addi	a4,a4,-2048 # 40010800 <_eusrstack+0x1fe90800>
201008e2:	02e50f63          	beq	a0,a4,20100920 <GPIO_PinAFConfig+0x58>
201008e6:	40011737          	lui	a4,0x40011
201008ea:	c0070713          	addi	a4,a4,-1024 # 40010c00 <_eusrstack+0x1fe90c00>
201008ee:	06e50c63          	beq	a0,a4,20100966 <GPIO_PinAFConfig+0x9e>
201008f2:	40011737          	lui	a4,0x40011
201008f6:	0ae50b63          	beq	a0,a4,201009ac <GPIO_PinAFConfig+0xe4>
201008fa:	40011737          	lui	a4,0x40011
201008fe:	40070713          	addi	a4,a4,1024 # 40011400 <_eusrstack+0x1fe91400>
20100902:	0ee50863          	beq	a0,a4,201009f2 <GPIO_PinAFConfig+0x12a>
20100906:	40012737          	lui	a4,0x40012
2010090a:	80070713          	addi	a4,a4,-2048 # 40011800 <_eusrstack+0x1fe91800>
2010090e:	12e50563          	beq	a0,a4,20100a38 <GPIO_PinAFConfig+0x170>
20100912:	40012737          	lui	a4,0x40012
20100916:	c0070713          	addi	a4,a4,-1024 # 40011c00 <_eusrstack+0x1fe91c00>
2010091a:	16e50263          	beq	a0,a4,20100a7e <GPIO_PinAFConfig+0x1b6>
2010091e:	8082                	ret
20100920:	471d                	li	a4,7
20100922:	02b77263          	bgeu	a4,a1,20100946 <GPIO_PinAFConfig+0x7e>
20100926:	400106b7          	lui	a3,0x40010
2010092a:	468c                	lw	a1,8(a3)
2010092c:	078a                	slli	a5,a5,0x2
2010092e:	473d                	li	a4,15
20100930:	00f71733          	sll	a4,a4,a5
20100934:	40e5f733          	andn	a4,a1,a4
20100938:	c698                	sw	a4,8(a3)
2010093a:	4698                	lw	a4,8(a3)
2010093c:	00f617b3          	sll	a5,a2,a5
20100940:	8fd9                	or	a5,a5,a4
20100942:	c69c                	sw	a5,8(a3)
20100944:	8082                	ret
20100946:	400106b7          	lui	a3,0x40010
2010094a:	42cc                	lw	a1,4(a3)
2010094c:	078a                	slli	a5,a5,0x2
2010094e:	473d                	li	a4,15
20100950:	00f71733          	sll	a4,a4,a5
20100954:	40e5f733          	andn	a4,a1,a4
20100958:	c2d8                	sw	a4,4(a3)
2010095a:	42d8                	lw	a4,4(a3)
2010095c:	00f617b3          	sll	a5,a2,a5
20100960:	8fd9                	or	a5,a5,a4
20100962:	c2dc                	sw	a5,4(a3)
20100964:	8082                	ret
20100966:	471d                	li	a4,7
20100968:	02b77263          	bgeu	a4,a1,2010098c <GPIO_PinAFConfig+0xc4>
2010096c:	400106b7          	lui	a3,0x40010
20100970:	4a8c                	lw	a1,16(a3)
20100972:	078a                	slli	a5,a5,0x2
20100974:	473d                	li	a4,15
20100976:	00f71733          	sll	a4,a4,a5
2010097a:	40e5f733          	andn	a4,a1,a4
2010097e:	ca98                	sw	a4,16(a3)
20100980:	4a98                	lw	a4,16(a3)
20100982:	00f617b3          	sll	a5,a2,a5
20100986:	8fd9                	or	a5,a5,a4
20100988:	ca9c                	sw	a5,16(a3)
2010098a:	8082                	ret
2010098c:	400106b7          	lui	a3,0x40010
20100990:	46cc                	lw	a1,12(a3)
20100992:	078a                	slli	a5,a5,0x2
20100994:	473d                	li	a4,15
20100996:	00f71733          	sll	a4,a4,a5
2010099a:	40e5f733          	andn	a4,a1,a4
2010099e:	c6d8                	sw	a4,12(a3)
201009a0:	46d8                	lw	a4,12(a3)
201009a2:	00f617b3          	sll	a5,a2,a5
201009a6:	8fd9                	or	a5,a5,a4
201009a8:	c6dc                	sw	a5,12(a3)
201009aa:	8082                	ret
201009ac:	471d                	li	a4,7
201009ae:	02b77263          	bgeu	a4,a1,201009d2 <GPIO_PinAFConfig+0x10a>
201009b2:	400106b7          	lui	a3,0x40010
201009b6:	4e8c                	lw	a1,24(a3)
201009b8:	078a                	slli	a5,a5,0x2
201009ba:	473d                	li	a4,15
201009bc:	00f71733          	sll	a4,a4,a5
201009c0:	40e5f733          	andn	a4,a1,a4
201009c4:	ce98                	sw	a4,24(a3)
201009c6:	4e98                	lw	a4,24(a3)
201009c8:	00f617b3          	sll	a5,a2,a5
201009cc:	8fd9                	or	a5,a5,a4
201009ce:	ce9c                	sw	a5,24(a3)
201009d0:	8082                	ret
201009d2:	400106b7          	lui	a3,0x40010
201009d6:	4acc                	lw	a1,20(a3)
201009d8:	078a                	slli	a5,a5,0x2
201009da:	473d                	li	a4,15
201009dc:	00f71733          	sll	a4,a4,a5
201009e0:	40e5f733          	andn	a4,a1,a4
201009e4:	cad8                	sw	a4,20(a3)
201009e6:	4ad8                	lw	a4,20(a3)
201009e8:	00f617b3          	sll	a5,a2,a5
201009ec:	8fd9                	or	a5,a5,a4
201009ee:	cadc                	sw	a5,20(a3)
201009f0:	8082                	ret
201009f2:	471d                	li	a4,7
201009f4:	02b77263          	bgeu	a4,a1,20100a18 <GPIO_PinAFConfig+0x150>
201009f8:	400106b7          	lui	a3,0x40010
201009fc:	528c                	lw	a1,32(a3)
201009fe:	078a                	slli	a5,a5,0x2
20100a00:	473d                	li	a4,15
20100a02:	00f71733          	sll	a4,a4,a5
20100a06:	40e5f733          	andn	a4,a1,a4
20100a0a:	d298                	sw	a4,32(a3)
20100a0c:	5298                	lw	a4,32(a3)
20100a0e:	00f617b3          	sll	a5,a2,a5
20100a12:	8fd9                	or	a5,a5,a4
20100a14:	d29c                	sw	a5,32(a3)
20100a16:	8082                	ret
20100a18:	400106b7          	lui	a3,0x40010
20100a1c:	4ecc                	lw	a1,28(a3)
20100a1e:	078a                	slli	a5,a5,0x2
20100a20:	473d                	li	a4,15
20100a22:	00f71733          	sll	a4,a4,a5
20100a26:	40e5f733          	andn	a4,a1,a4
20100a2a:	ced8                	sw	a4,28(a3)
20100a2c:	4ed8                	lw	a4,28(a3)
20100a2e:	00f617b3          	sll	a5,a2,a5
20100a32:	8fd9                	or	a5,a5,a4
20100a34:	cedc                	sw	a5,28(a3)
20100a36:	8082                	ret
20100a38:	471d                	li	a4,7
20100a3a:	02b77263          	bgeu	a4,a1,20100a5e <GPIO_PinAFConfig+0x196>
20100a3e:	400106b7          	lui	a3,0x40010
20100a42:	568c                	lw	a1,40(a3)
20100a44:	078a                	slli	a5,a5,0x2
20100a46:	473d                	li	a4,15
20100a48:	00f71733          	sll	a4,a4,a5
20100a4c:	40e5f733          	andn	a4,a1,a4
20100a50:	d698                	sw	a4,40(a3)
20100a52:	5698                	lw	a4,40(a3)
20100a54:	00f617b3          	sll	a5,a2,a5
20100a58:	8fd9                	or	a5,a5,a4
20100a5a:	d69c                	sw	a5,40(a3)
20100a5c:	8082                	ret
20100a5e:	400106b7          	lui	a3,0x40010
20100a62:	52cc                	lw	a1,36(a3)
20100a64:	078a                	slli	a5,a5,0x2
20100a66:	473d                	li	a4,15
20100a68:	00f71733          	sll	a4,a4,a5
20100a6c:	40e5f733          	andn	a4,a1,a4
20100a70:	d2d8                	sw	a4,36(a3)
20100a72:	52d8                	lw	a4,36(a3)
20100a74:	00f617b3          	sll	a5,a2,a5
20100a78:	8fd9                	or	a5,a5,a4
20100a7a:	d2dc                	sw	a5,36(a3)
20100a7c:	8082                	ret
20100a7e:	471d                	li	a4,7
20100a80:	02b77263          	bgeu	a4,a1,20100aa4 <GPIO_PinAFConfig+0x1dc>
20100a84:	400106b7          	lui	a3,0x40010
20100a88:	5a8c                	lw	a1,48(a3)
20100a8a:	078a                	slli	a5,a5,0x2
20100a8c:	473d                	li	a4,15
20100a8e:	00f71733          	sll	a4,a4,a5
20100a92:	40e5f733          	andn	a4,a1,a4
20100a96:	da98                	sw	a4,48(a3)
20100a98:	5a98                	lw	a4,48(a3)
20100a9a:	00f617b3          	sll	a5,a2,a5
20100a9e:	8fd9                	or	a5,a5,a4
20100aa0:	da9c                	sw	a5,48(a3)
20100aa2:	8082                	ret
20100aa4:	400106b7          	lui	a3,0x40010
20100aa8:	56cc                	lw	a1,44(a3)
20100aaa:	078a                	slli	a5,a5,0x2
20100aac:	473d                	li	a4,15
20100aae:	00f71733          	sll	a4,a4,a5
20100ab2:	40e5f733          	andn	a4,a1,a4
20100ab6:	d6d8                	sw	a4,44(a3)
20100ab8:	56d8                	lw	a4,44(a3)
20100aba:	00f61633          	sll	a2,a2,a5
20100abe:	00c767b3          	or	a5,a4,a2
20100ac2:	d6dc                	sw	a5,44(a3)
20100ac4:	bda9                	j	2010091e <GPIO_PinAFConfig+0x56>

20100ac6 <GPIO_IPD_Unused>:
20100ac6:	fbeff2ef          	jal	t0,20100284 <__riscv_save_0>
20100aca:	1141                	addi	sp,sp,-16
20100acc:	c202                	sw	zero,4(sp)
20100ace:	c402                	sw	zero,8(sp)
20100ad0:	c602                	sw	zero,12(sp)
20100ad2:	4585                	li	a1,1
20100ad4:	0fc00513          	li	a0,252
20100ad8:	7d8000ef          	jal	ra,201012b0 <RCC_HB2PeriphClockCmd>
20100adc:	4002a7b7          	lui	a5,0x4002a
20100ae0:	4b98                	lw	a4,16(a5)
20100ae2:	f0077713          	andi	a4,a4,-256
20100ae6:	c03a                	sw	a4,0(sp)
20100ae8:	4702                	lw	a4,0(sp)
20100aea:	01b76713          	ori	a4,a4,27
20100aee:	c03a                	sw	a4,0(sp)
20100af0:	4702                	lw	a4,0(sp)
20100af2:	cb98                	sw	a4,16(a5)
20100af4:	4bd8                	lw	a4,20(a5)
20100af6:	fc077713          	andi	a4,a4,-64
20100afa:	c03a                	sw	a4,0(sp)
20100afc:	4702                	lw	a4,0(sp)
20100afe:	00e76713          	ori	a4,a4,14
20100b02:	c03a                	sw	a4,0(sp)
20100b04:	4702                	lw	a4,0(sp)
20100b06:	cbd8                	sw	a4,20(a5)
20100b08:	31bd                	jal	20100776 <FLASH_BOOT_GetMode>
20100b0a:	1ffff7b7          	lui	a5,0x1ffff
20100b0e:	7047a783          	lw	a5,1796(a5) # 1ffff704 <_data_lma+0x1fff9304>
20100b12:	0f07f793          	andi	a5,a5,240
20100b16:	c7dd                	beqz	a5,20100bc4 <GPIO_IPD_Unused+0xfe>
20100b18:	1ffff7b7          	lui	a5,0x1ffff
20100b1c:	7047a783          	lw	a5,1796(a5) # 1ffff704 <_data_lma+0x1fff9304>
20100b20:	f0f7f793          	andi	a5,a5,-241
20100b24:	41710737          	lui	a4,0x41710
20100b28:	50d70713          	addi	a4,a4,1293 # 4171050d <_eusrstack+0x2159050d>
20100b2c:	12e78d63          	beq	a5,a4,20100c66 <GPIO_IPD_Unused+0x1a0>
20100b30:	41710737          	lui	a4,0x41710
20100b34:	50d70713          	addi	a4,a4,1293 # 4171050d <_eusrstack+0x2159050d>
20100b38:	0af76763          	bltu	a4,a5,20100be6 <GPIO_IPD_Unused+0x120>
20100b3c:	41500737          	lui	a4,0x41500
20100b40:	50d70713          	addi	a4,a4,1293 # 4150050d <_eusrstack+0x2138050d>
20100b44:	18e78d63          	beq	a5,a4,20100cde <GPIO_IPD_Unused+0x218>
20100b48:	41600737          	lui	a4,0x41600
20100b4c:	50d70713          	addi	a4,a4,1293 # 4160050d <_eusrstack+0x2148050d>
20100b50:	18e79463          	bne	a5,a4,20100cd8 <GPIO_IPD_Unused+0x212>
20100b54:	70000793          	li	a5,1792
20100b58:	827c                	sh	a5,4(sp)
20100b5a:	02800413          	li	s0,40
20100b5e:	c622                	sw	s0,12(sp)
20100b60:	004c                	addi	a1,sp,4
20100b62:	400114b7          	lui	s1,0x40011
20100b66:	80048513          	addi	a0,s1,-2048 # 40010800 <_eusrstack+0x1fe90800>
20100b6a:	31b1                	jal	201007b6 <GPIO_Init>
20100b6c:	c0400793          	li	a5,-1020
20100b70:	827c                	sh	a5,4(sp)
20100b72:	c622                	sw	s0,12(sp)
20100b74:	004c                	addi	a1,sp,4
20100b76:	c0048513          	addi	a0,s1,-1024
20100b7a:	3935                	jal	201007b6 <GPIO_Init>
20100b7c:	77f9                	lui	a5,0xffffe
20100b7e:	827c                	sh	a5,4(sp)
20100b80:	c622                	sw	s0,12(sp)
20100b82:	004c                	addi	a1,sp,4
20100b84:	40011537          	lui	a0,0x40011
20100b88:	313d                	jal	201007b6 <GPIO_Init>
20100b8a:	9f300793          	li	a5,-1549
20100b8e:	827c                	sh	a5,4(sp)
20100b90:	c622                	sw	s0,12(sp)
20100b92:	004c                	addi	a1,sp,4
20100b94:	40048513          	addi	a0,s1,1024
20100b98:	3939                	jal	201007b6 <GPIO_Init>
20100b9a:	77e1                	lui	a5,0xffff8
20100b9c:	dff7c793          	xori	a5,a5,-513
20100ba0:	827c                	sh	a5,4(sp)
20100ba2:	c622                	sw	s0,12(sp)
20100ba4:	004c                	addi	a1,sp,4
20100ba6:	400124b7          	lui	s1,0x40012
20100baa:	80048513          	addi	a0,s1,-2048 # 40011800 <_eusrstack+0x1fe91800>
20100bae:	3121                	jal	201007b6 <GPIO_Init>
20100bb0:	6795                	lui	a5,0x5
20100bb2:	83f78793          	addi	a5,a5,-1985 # 483f <__stack_size+0x403f>
20100bb6:	827c                	sh	a5,4(sp)
20100bb8:	c622                	sw	s0,12(sp)
20100bba:	004c                	addi	a1,sp,4
20100bbc:	c0048513          	addi	a0,s1,-1024
20100bc0:	3edd                	jal	201007b6 <GPIO_Init>
20100bc2:	aa19                	j	20100cd8 <GPIO_IPD_Unused+0x212>
20100bc4:	4585                	li	a1,1
20100bc6:	80000537          	lui	a0,0x80000
20100bca:	2709                	jal	201012cc <RCC_HB1PeriphClockCmd>
20100bcc:	400087b7          	lui	a5,0x40008
20100bd0:	4247a703          	lw	a4,1060(a5) # 40008424 <_eusrstack+0x1fe88424>
20100bd4:	00176713          	ori	a4,a4,1
20100bd8:	42e7a223          	sw	a4,1060(a5)
20100bdc:	4581                	li	a1,0
20100bde:	80000537          	lui	a0,0x80000
20100be2:	25ed                	jal	201012cc <RCC_HB1PeriphClockCmd>
20100be4:	bf15                	j	20100b18 <GPIO_IPD_Unused+0x52>
20100be6:	41720737          	lui	a4,0x41720
20100bea:	50d70713          	addi	a4,a4,1293 # 4172050d <_eusrstack+0x215a050d>
20100bee:	0ee79563          	bne	a5,a4,20100cd8 <GPIO_IPD_Unused+0x212>
20100bf2:	6489                	lui	s1,0x2
20100bf4:	fdf48793          	addi	a5,s1,-33 # 1fdf <__stack_size+0x17df>
20100bf8:	827c                	sh	a5,4(sp)
20100bfa:	02800413          	li	s0,40
20100bfe:	c622                	sw	s0,12(sp)
20100c00:	004c                	addi	a1,sp,4
20100c02:	40011937          	lui	s2,0x40011
20100c06:	80090513          	addi	a0,s2,-2048 # 40010800 <_eusrstack+0x1fe90800>
20100c0a:	3675                	jal	201007b6 <GPIO_Init>
20100c0c:	77e1                	lui	a5,0xffff8
20100c0e:	0fc78793          	addi	a5,a5,252 # ffff80fc <_eusrstack+0xdfe780fc>
20100c12:	827c                	sh	a5,4(sp)
20100c14:	c622                	sw	s0,12(sp)
20100c16:	004c                	addi	a1,sp,4
20100c18:	c0090513          	addi	a0,s2,-1024
20100c1c:	3e69                	jal	201007b6 <GPIO_Init>
20100c1e:	77f9                	lui	a5,0xffffe
20100c20:	03078793          	addi	a5,a5,48 # ffffe030 <_eusrstack+0xdfe7e030>
20100c24:	827c                	sh	a5,4(sp)
20100c26:	c622                	sw	s0,12(sp)
20100c28:	004c                	addi	a1,sp,4
20100c2a:	40011537          	lui	a0,0x40011
20100c2e:	3661                	jal	201007b6 <GPIO_Init>
20100c30:	30000793          	li	a5,768
20100c34:	827c                	sh	a5,4(sp)
20100c36:	c622                	sw	s0,12(sp)
20100c38:	004c                	addi	a1,sp,4
20100c3a:	40090513          	addi	a0,s2,1024
20100c3e:	3ea5                	jal	201007b6 <GPIO_Init>
20100c40:	14f1                	addi	s1,s1,-4
20100c42:	8264                	sh	s1,4(sp)
20100c44:	c622                	sw	s0,12(sp)
20100c46:	004c                	addi	a1,sp,4
20100c48:	400124b7          	lui	s1,0x40012
20100c4c:	80048513          	addi	a0,s1,-2048 # 40011800 <_eusrstack+0x1fe91800>
20100c50:	369d                	jal	201007b6 <GPIO_Init>
20100c52:	6791                	lui	a5,0x4
20100c54:	fc078793          	addi	a5,a5,-64 # 3fc0 <__stack_size+0x37c0>
20100c58:	827c                	sh	a5,4(sp)
20100c5a:	c622                	sw	s0,12(sp)
20100c5c:	004c                	addi	a1,sp,4
20100c5e:	c0048513          	addi	a0,s1,-1024
20100c62:	3e91                	jal	201007b6 <GPIO_Init>
20100c64:	a895                	j	20100cd8 <GPIO_IPD_Unused+0x212>
20100c66:	1ce00793          	li	a5,462
20100c6a:	827c                	sh	a5,4(sp)
20100c6c:	02800413          	li	s0,40
20100c70:	c622                	sw	s0,12(sp)
20100c72:	004c                	addi	a1,sp,4
20100c74:	400114b7          	lui	s1,0x40011
20100c78:	80048513          	addi	a0,s1,-2048 # 40010800 <_eusrstack+0x1fe90800>
20100c7c:	3e2d                	jal	201007b6 <GPIO_Init>
20100c7e:	77e1                	lui	a5,0xffff8
20100c80:	0e478793          	addi	a5,a5,228 # ffff80e4 <_eusrstack+0xdfe780e4>
20100c84:	827c                	sh	a5,4(sp)
20100c86:	c622                	sw	s0,12(sp)
20100c88:	004c                	addi	a1,sp,4
20100c8a:	c0048513          	addi	a0,s1,-1024
20100c8e:	3625                	jal	201007b6 <GPIO_Init>
20100c90:	77f9                	lui	a5,0xffffe
20100c92:	03078793          	addi	a5,a5,48 # ffffe030 <_eusrstack+0xdfe7e030>
20100c96:	827c                	sh	a5,4(sp)
20100c98:	c622                	sw	s0,12(sp)
20100c9a:	004c                	addi	a1,sp,4
20100c9c:	40011537          	lui	a0,0x40011
20100ca0:	3e19                	jal	201007b6 <GPIO_Init>
20100ca2:	30000793          	li	a5,768
20100ca6:	827c                	sh	a5,4(sp)
20100ca8:	c622                	sw	s0,12(sp)
20100caa:	004c                	addi	a1,sp,4
20100cac:	40048513          	addi	a0,s1,1024
20100cb0:	3619                	jal	201007b6 <GPIO_Init>
20100cb2:	38400793          	li	a5,900
20100cb6:	827c                	sh	a5,4(sp)
20100cb8:	c622                	sw	s0,12(sp)
20100cba:	004c                	addi	a1,sp,4
20100cbc:	400124b7          	lui	s1,0x40012
20100cc0:	80048513          	addi	a0,s1,-2048 # 40011800 <_eusrstack+0x1fe91800>
20100cc4:	3ccd                	jal	201007b6 <GPIO_Init>
20100cc6:	6791                	lui	a5,0x4
20100cc8:	fc078793          	addi	a5,a5,-64 # 3fc0 <__stack_size+0x37c0>
20100ccc:	827c                	sh	a5,4(sp)
20100cce:	c622                	sw	s0,12(sp)
20100cd0:	004c                	addi	a1,sp,4
20100cd2:	c0048513          	addi	a0,s1,-1024
20100cd6:	34c5                	jal	201007b6 <GPIO_Init>
20100cd8:	0141                	addi	sp,sp,16
20100cda:	dceff06f          	j	201002a8 <__riscv_restore_0>
20100cde:	10000793          	li	a5,256
20100ce2:	827c                	sh	a5,4(sp)
20100ce4:	02800413          	li	s0,40
20100ce8:	c622                	sw	s0,12(sp)
20100cea:	004c                	addi	a1,sp,4
20100cec:	400114b7          	lui	s1,0x40011
20100cf0:	80048513          	addi	a0,s1,-2048 # 40010800 <_eusrstack+0x1fe90800>
20100cf4:	34c9                	jal	201007b6 <GPIO_Init>
20100cf6:	02400793          	li	a5,36
20100cfa:	827c                	sh	a5,4(sp)
20100cfc:	c622                	sw	s0,12(sp)
20100cfe:	004c                	addi	a1,sp,4
20100d00:	c0048513          	addi	a0,s1,-1024
20100d04:	3c4d                	jal	201007b6 <GPIO_Init>
20100d06:	77f9                	lui	a5,0xffffe
20100d08:	02078793          	addi	a5,a5,32 # ffffe020 <_eusrstack+0xdfe7e020>
20100d0c:	827c                	sh	a5,4(sp)
20100d0e:	c622                	sw	s0,12(sp)
20100d10:	004c                	addi	a1,sp,4
20100d12:	40011537          	lui	a0,0x40011
20100d16:	3445                	jal	201007b6 <GPIO_Init>
20100d18:	57dd                	li	a5,-9
20100d1a:	827c                	sh	a5,4(sp)
20100d1c:	c622                	sw	s0,12(sp)
20100d1e:	004c                	addi	a1,sp,4
20100d20:	40048513          	addi	a0,s1,1024
20100d24:	3c49                	jal	201007b6 <GPIO_Init>
20100d26:	78700793          	li	a5,1927
20100d2a:	827c                	sh	a5,4(sp)
20100d2c:	c622                	sw	s0,12(sp)
20100d2e:	004c                	addi	a1,sp,4
20100d30:	400124b7          	lui	s1,0x40012
20100d34:	80048513          	addi	a0,s1,-2048 # 40011800 <_eusrstack+0x1fe91800>
20100d38:	3cbd                	jal	201007b6 <GPIO_Init>
20100d3a:	77e1                	lui	a5,0xffff8
20100d3c:	fc77c793          	xori	a5,a5,-57
20100d40:	827c                	sh	a5,4(sp)
20100d42:	c622                	sw	s0,12(sp)
20100d44:	004c                	addi	a1,sp,4
20100d46:	c0048513          	addi	a0,s1,-1024
20100d4a:	34b5                	jal	201007b6 <GPIO_Init>
20100d4c:	b771                	j	20100cd8 <GPIO_IPD_Unused+0x212>

20100d4e <HSEM_FastTake>:
20100d4e:	04050513          	addi	a0,a0,64 # 40011040 <_eusrstack+0x1fe91040>
20100d52:	e000c7b7          	lui	a5,0xe000c
20100d56:	20f54533          	sh2add	a0,a0,a5
20100d5a:	4118                	lw	a4,0(a0)
20100d5c:	e000f7b7          	lui	a5,0xe000f
20100d60:	d107a783          	lw	a5,-752(a5) # e000ed10 <_eusrstack+0xbfe8ed10>
20100d64:	4907d793          	bexti	a5,a5,0x10
20100d68:	07a2                	slli	a5,a5,0x8
20100d6a:	29f79793          	bseti	a5,a5,0x1f
20100d6e:	00f70463          	beq	a4,a5,20100d76 <HSEM_FastTake+0x28>
20100d72:	4501                	li	a0,0
20100d74:	8082                	ret
20100d76:	4505                	li	a0,1
20100d78:	8082                	ret

20100d7a <HSEM_ReleaseOneSem>:
20100d7a:	0ff5f593          	zext.b	a1,a1
20100d7e:	e000f7b7          	lui	a5,0xe000f
20100d82:	d107a783          	lw	a5,-752(a5) # e000ed10 <_eusrstack+0xbfe8ed10>
20100d86:	4907d793          	bexti	a5,a5,0x10
20100d8a:	07a2                	slli	a5,a5,0x8
20100d8c:	8ddd                	or	a1,a1,a5
20100d8e:	e000c7b7          	lui	a5,0xe000c
20100d92:	20f54533          	sh2add	a0,a0,a5
20100d96:	c10c                	sw	a1,0(a0)
20100d98:	8082                	ret

20100d9a <HSEM_ReleaseAllSem>:
20100d9a:	e000c7b7          	lui	a5,0xe000c
20100d9e:	5aa53737          	lui	a4,0x5aa53
20100da2:	20e7a423          	sw	a4,520(a5) # e000c208 <_eusrstack+0xbfe8c208>
20100da6:	8082                	ret

20100da8 <I2C_Init>:
20100da8:	cdcff2ef          	jal	t0,20100284 <__riscv_save_0>
20100dac:	1141                	addi	sp,sp,-16
20100dae:	842a                	mv	s0,a0
20100db0:	892e                	mv	s2,a1
20100db2:	2146                	lhu	s1,4(a0)
20100db4:	0804c4b3          	zext.h	s1,s1
20100db8:	fc04f493          	andi	s1,s1,-64
20100dbc:	0804c4b3          	zext.h	s1,s1
20100dc0:	850a                	mv	a0,sp
20100dc2:	2455                	jal	20101066 <RCC_GetClocksFreq>
20100dc4:	4712                	lw	a4,4(sp)
20100dc6:	000f47b7          	lui	a5,0xf4
20100dca:	24078793          	addi	a5,a5,576 # f4240 <_data_lma+0xede40>
20100dce:	02f757b3          	divu	a5,a4,a5
20100dd2:	0807c7b3          	zext.h	a5,a5
20100dd6:	03b00693          	li	a3,59
20100dda:	00f6f463          	bgeu	a3,a5,20100de2 <I2C_Init+0x3a>
20100dde:	03c00793          	li	a5,60
20100de2:	8cdd                	or	s1,s1,a5
20100de4:	a046                	sh	s1,4(s0)
20100de6:	2016                	lhu	a3,0(s0)
20100de8:	0806c6b3          	zext.h	a3,a3
20100dec:	9af9                	andi	a3,a3,-2
20100dee:	0806c6b3          	zext.h	a3,a3
20100df2:	a016                	sh	a3,0(s0)
20100df4:	00092683          	lw	a3,0(s2)
20100df8:	6661                	lui	a2,0x18
20100dfa:	6a060613          	addi	a2,a2,1696 # 186a0 <_data_lma+0x122a0>
20100dfe:	04d66963          	bltu	a2,a3,20100e50 <I2C_Init+0xa8>
20100e02:	0686                	slli	a3,a3,0x1
20100e04:	02d75733          	divu	a4,a4,a3
20100e08:	08074733          	zext.h	a4,a4
20100e0c:	468d                	li	a3,3
20100e0e:	00e6e363          	bltu	a3,a4,20100e14 <I2C_Init+0x6c>
20100e12:	4711                	li	a4,4
20100e14:	0785                	addi	a5,a5,1
20100e16:	0807c7b3          	zext.h	a5,a5
20100e1a:	b01e                	sh	a5,32(s0)
20100e1c:	ac5a                	sh	a4,28(s0)
20100e1e:	201e                	lhu	a5,0(s0)
20100e20:	0017e793          	ori	a5,a5,1
20100e24:	a01e                	sh	a5,0(s0)
20100e26:	201e                	lhu	a5,0(s0)
20100e28:	0807c7b3          	zext.h	a5,a5
20100e2c:	bf57f793          	andi	a5,a5,-1035
20100e30:	00495703          	lhu	a4,4(s2)
20100e34:	00a95683          	lhu	a3,10(s2)
20100e38:	8f55                	or	a4,a4,a3
20100e3a:	8fd9                	or	a5,a5,a4
20100e3c:	a01e                	sh	a5,0(s0)
20100e3e:	00c95783          	lhu	a5,12(s2)
20100e42:	00895703          	lhu	a4,8(s2)
20100e46:	8fd9                	or	a5,a5,a4
20100e48:	a41e                	sh	a5,8(s0)
20100e4a:	0141                	addi	sp,sp,16
20100e4c:	c5cff06f          	j	201002a8 <__riscv_restore_0>
20100e50:	00695583          	lhu	a1,6(s2)
20100e54:	6631                	lui	a2,0xc
20100e56:	167d                	addi	a2,a2,-1 # bfff <_data_lma+0x5bff>
20100e58:	04c58363          	beq	a1,a2,20100e9e <I2C_Init+0xf6>
20100e5c:	20d6a633          	sh1add	a2,a3,a3
20100e60:	20d666b3          	sh3add	a3,a2,a3
20100e64:	02d75733          	divu	a4,a4,a3
20100e68:	08074733          	zext.h	a4,a4
20100e6c:	28e71713          	bseti	a4,a4,0xe
20100e70:	6685                	lui	a3,0x1
20100e72:	16fd                	addi	a3,a3,-1 # fff <__stack_size+0x7ff>
20100e74:	8ef9                	and	a3,a3,a4
20100e76:	e299                	bnez	a3,20100e7c <I2C_Init+0xd4>
20100e78:	00176713          	ori	a4,a4,1
20100e7c:	76e1                	lui	a3,0xffff8
20100e7e:	8f55                	or	a4,a4,a3
20100e80:	08074733          	zext.h	a4,a4
20100e84:	12c00693          	li	a3,300
20100e88:	02d787b3          	mul	a5,a5,a3
20100e8c:	3e800693          	li	a3,1000
20100e90:	02d7c7b3          	div	a5,a5,a3
20100e94:	0785                	addi	a5,a5,1
20100e96:	0807c7b3          	zext.h	a5,a5
20100e9a:	b01e                	sh	a5,32(s0)
20100e9c:	b741                	j	20100e1c <I2C_Init+0x74>
20100e9e:	20d6a6b3          	sh1add	a3,a3,a3
20100ea2:	02d75733          	divu	a4,a4,a3
20100ea6:	08074733          	zext.h	a4,a4
20100eaa:	b7d9                	j	20100e70 <I2C_Init+0xc8>

20100eac <I2C_Cmd>:
20100eac:	c591                	beqz	a1,20100eb8 <I2C_Cmd+0xc>
20100eae:	211e                	lhu	a5,0(a0)
20100eb0:	0017e793          	ori	a5,a5,1
20100eb4:	a11e                	sh	a5,0(a0)
20100eb6:	8082                	ret
20100eb8:	211e                	lhu	a5,0(a0)
20100eba:	0807c7b3          	zext.h	a5,a5
20100ebe:	9bf9                	andi	a5,a5,-2
20100ec0:	0807c7b3          	zext.h	a5,a5
20100ec4:	a11e                	sh	a5,0(a0)
20100ec6:	8082                	ret

20100ec8 <I2C_GenerateSTART>:
20100ec8:	c591                	beqz	a1,20100ed4 <I2C_GenerateSTART+0xc>
20100eca:	211e                	lhu	a5,0(a0)
20100ecc:	1007e793          	ori	a5,a5,256
20100ed0:	a11e                	sh	a5,0(a0)
20100ed2:	8082                	ret
20100ed4:	211e                	lhu	a5,0(a0)
20100ed6:	0807c7b3          	zext.h	a5,a5
20100eda:	eff7f793          	andi	a5,a5,-257
20100ede:	0807c7b3          	zext.h	a5,a5
20100ee2:	a11e                	sh	a5,0(a0)
20100ee4:	8082                	ret

20100ee6 <I2C_GenerateSTOP>:
20100ee6:	c591                	beqz	a1,20100ef2 <I2C_GenerateSTOP+0xc>
20100ee8:	211e                	lhu	a5,0(a0)
20100eea:	2007e793          	ori	a5,a5,512
20100eee:	a11e                	sh	a5,0(a0)
20100ef0:	8082                	ret
20100ef2:	211e                	lhu	a5,0(a0)
20100ef4:	0807c7b3          	zext.h	a5,a5
20100ef8:	dff7f793          	andi	a5,a5,-513
20100efc:	0807c7b3          	zext.h	a5,a5
20100f00:	a11e                	sh	a5,0(a0)
20100f02:	8082                	ret

20100f04 <I2C_SendData>:
20100f04:	a90e                	sh	a1,16(a0)
20100f06:	8082                	ret

20100f08 <I2C_Send7bitAddress>:
20100f08:	c609                	beqz	a2,20100f12 <I2C_Send7bitAddress+0xa>
20100f0a:	0015e593          	ori	a1,a1,1
20100f0e:	a90e                	sh	a1,16(a0)
20100f10:	8082                	ret
20100f12:	0fe5f593          	andi	a1,a1,254
20100f16:	bfe5                	j	20100f0e <I2C_Send7bitAddress+0x6>

20100f18 <I2C_CheckEvent>:
20100f18:	295e                	lhu	a5,20(a0)
20100f1a:	2d1a                	lhu	a4,24(a0)
20100f1c:	0742                	slli	a4,a4,0x10
20100f1e:	8fd9                	or	a5,a5,a4
20100f20:	01000737          	lui	a4,0x1000
20100f24:	177d                	addi	a4,a4,-1 # ffffff <_data_lma+0xff9bff>
20100f26:	8ff9                	and	a5,a5,a4
20100f28:	8fed                	and	a5,a5,a1
20100f2a:	00b78463          	beq	a5,a1,20100f32 <I2C_CheckEvent+0x1a>
20100f2e:	4501                	li	a0,0
20100f30:	8082                	ret
20100f32:	4505                	li	a0,1
20100f34:	8082                	ret

20100f36 <I2C_GetFlagStatus>:
20100f36:	1141                	addi	sp,sp,-16
20100f38:	c602                	sw	zero,12(sp)
20100f3a:	c402                	sw	zero,8(sp)
20100f3c:	c42a                	sw	a0,8(sp)
20100f3e:	01c5d793          	srli	a5,a1,0x1c
20100f42:	c63e                	sw	a5,12(sp)
20100f44:	010007b7          	lui	a5,0x1000
20100f48:	17fd                	addi	a5,a5,-1 # ffffff <_data_lma+0xff9bff>
20100f4a:	8dfd                	and	a1,a1,a5
20100f4c:	47b2                	lw	a5,12(sp)
20100f4e:	cb99                	beqz	a5,20100f64 <I2C_GetFlagStatus+0x2e>
20100f50:	47a2                	lw	a5,8(sp)
20100f52:	07d1                	addi	a5,a5,20
20100f54:	c43e                	sw	a5,8(sp)
20100f56:	47a2                	lw	a5,8(sp)
20100f58:	4388                	lw	a0,0(a5)
20100f5a:	8d6d                	and	a0,a0,a1
20100f5c:	c111                	beqz	a0,20100f60 <I2C_GetFlagStatus+0x2a>
20100f5e:	4505                	li	a0,1
20100f60:	0141                	addi	sp,sp,16
20100f62:	8082                	ret
20100f64:	81c1                	srli	a1,a1,0x10
20100f66:	47a2                	lw	a5,8(sp)
20100f68:	07e1                	addi	a5,a5,24
20100f6a:	c43e                	sw	a5,8(sp)
20100f6c:	b7ed                	j	20100f56 <I2C_GetFlagStatus+0x20>

20100f6e <IPC_Init>:
20100f6e:	e000d5b7          	lui	a1,0xe000d
20100f72:	419c                	lw	a5,0(a1)
20100f74:	4118                	lw	a4,0(a0)
20100f76:	070e                	slli	a4,a4,0x3
20100f78:	0ff00693          	li	a3,255
20100f7c:	00e696b3          	sll	a3,a3,a4
20100f80:	40d7f6b3          	andn	a3,a5,a3
20100f84:	415c                	lw	a5,4(a0)
20100f86:	00e797b3          	sll	a5,a5,a4
20100f8a:	4510                	lw	a2,8(a0)
20100f8c:	00270813          	addi	a6,a4,2
20100f90:	01061633          	sll	a2,a2,a6
20100f94:	8fd1                	or	a5,a5,a2
20100f96:	4550                	lw	a2,12(a0)
20100f98:	00470813          	addi	a6,a4,4
20100f9c:	01061633          	sll	a2,a2,a6
20100fa0:	8fd1                	or	a5,a5,a2
20100fa2:	4910                	lw	a2,16(a0)
20100fa4:	00570813          	addi	a6,a4,5
20100fa8:	01061633          	sll	a2,a2,a6
20100fac:	8fd1                	or	a5,a5,a2
20100fae:	4950                	lw	a2,20(a0)
20100fb0:	0719                	addi	a4,a4,6
20100fb2:	00e61733          	sll	a4,a2,a4
20100fb6:	8fd9                	or	a5,a5,a4
20100fb8:	8fd5                	or	a5,a5,a3
20100fba:	c19c                	sw	a5,0(a1)
20100fbc:	8082                	ret

20100fbe <IPC_StructInit>:
20100fbe:	00052023          	sw	zero,0(a0)
20100fc2:	00052223          	sw	zero,4(a0)
20100fc6:	00052423          	sw	zero,8(a0)
20100fca:	00052623          	sw	zero,12(a0)
20100fce:	00052823          	sw	zero,16(a0)
20100fd2:	00052a23          	sw	zero,20(a0)
20100fd6:	8082                	ret

20100fd8 <IPC_CH0_Lock>:
20100fd8:	e000d737          	lui	a4,0xe000d
20100fdc:	431c                	lw	a5,0(a4)
20100fde:	0807e793          	ori	a5,a5,128
20100fe2:	c31c                	sw	a5,0(a4)
20100fe4:	8082                	ret

20100fe6 <IPC_CH1_Lock>:
20100fe6:	e000d737          	lui	a4,0xe000d
20100fea:	431c                	lw	a5,0(a4)
20100fec:	28f79793          	bseti	a5,a5,0xf
20100ff0:	c31c                	sw	a5,0(a4)
20100ff2:	8082                	ret

20100ff4 <IPC_GetFlagStatus>:
20100ff4:	e000d7b7          	lui	a5,0xe000d
20100ff8:	4bdc                	lw	a5,20(a5)
20100ffa:	20b56533          	sh3add	a0,a0,a1
20100ffe:	28a01533          	bset	a0,zero,a0
20101002:	8d7d                	and	a0,a0,a5
20101004:	c111                	beqz	a0,20101008 <IPC_GetFlagStatus+0x14>
20101006:	4505                	li	a0,1
20101008:	8082                	ret

2010100a <IPC_SetFlagStatus>:
2010100a:	20b56533          	sh3add	a0,a0,a1
2010100e:	28a01533          	bset	a0,zero,a0
20101012:	e000d7b7          	lui	a5,0xe000d
20101016:	cf88                	sw	a0,24(a5)
20101018:	8082                	ret

2010101a <IPC_ClearFlagStatus>:
2010101a:	20b56533          	sh3add	a0,a0,a1
2010101e:	28a01533          	bset	a0,zero,a0
20101022:	e000d7b7          	lui	a5,0xe000d
20101026:	cfc8                	sw	a0,28(a5)
20101028:	8082                	ret

2010102a <IPC_WriteMSG>:
2010102a:	1141                	addi	sp,sp,-16
2010102c:	c602                	sw	zero,12(sp)
2010102e:	e000d7b7          	lui	a5,0xe000d
20101032:	02078793          	addi	a5,a5,32 # e000d020 <_eusrstack+0xbfe8d020>
20101036:	c63e                	sw	a5,12(sp)
20101038:	47b2                	lw	a5,12(sp)
2010103a:	20f54533          	sh2add	a0,a0,a5
2010103e:	c62a                	sw	a0,12(sp)
20101040:	47b2                	lw	a5,12(sp)
20101042:	c38c                	sw	a1,0(a5)
20101044:	0141                	addi	sp,sp,16
20101046:	8082                	ret

20101048 <IPC_ReadMSG>:
20101048:	1141                	addi	sp,sp,-16
2010104a:	c602                	sw	zero,12(sp)
2010104c:	e000d7b7          	lui	a5,0xe000d
20101050:	02078793          	addi	a5,a5,32 # e000d020 <_eusrstack+0xbfe8d020>
20101054:	c63e                	sw	a5,12(sp)
20101056:	47b2                	lw	a5,12(sp)
20101058:	20f54533          	sh2add	a0,a0,a5
2010105c:	c62a                	sw	a0,12(sp)
2010105e:	47b2                	lw	a5,12(sp)
20101060:	4388                	lw	a0,0(a5)
20101062:	0141                	addi	sp,sp,16
20101064:	8082                	ret

20101066 <RCC_GetClocksFreq>:
20101066:	40021737          	lui	a4,0x40021
2010106a:	435c                	lw	a5,4(a4)
2010106c:	8bb1                	andi	a5,a5,12
2010106e:	4718                	lw	a4,8(a4)
20101070:	700006b7          	lui	a3,0x70000
20101074:	8f75                	and	a4,a4,a3
20101076:	4691                	li	a3,4
20101078:	0ad78063          	beq	a5,a3,20101118 <RCC_GetClocksFreq+0xb2>
2010107c:	46a1                	li	a3,8
2010107e:	0ad78363          	beq	a5,a3,20101124 <RCC_GetClocksFreq+0xbe>
20101082:	c799                	beqz	a5,20101090 <RCC_GetClocksFreq+0x2a>
20101084:	017d87b7          	lui	a5,0x17d8
20101088:	84078793          	addi	a5,a5,-1984 # 17d7840 <_data_lma+0x17d1440>
2010108c:	c11c                	sw	a5,0(a0)
2010108e:	a031                	j	2010109a <RCC_GetClocksFreq+0x34>
20101090:	017d87b7          	lui	a5,0x17d8
20101094:	84078793          	addi	a5,a5,-1984 # 17d7840 <_data_lma+0x17d1440>
20101098:	c11c                	sw	a5,0(a0)
2010109a:	400216b7          	lui	a3,0x40021
2010109e:	42d8                	lw	a4,4(a3)
201010a0:	8311                	srli	a4,a4,0x4
201010a2:	8b3d                	andi	a4,a4,15
201010a4:	201107b7          	lui	a5,0x20110
201010a8:	15078793          	addi	a5,a5,336 # 20110150 <HBPrescTable>
201010ac:	97ba                	add	a5,a5,a4
201010ae:	239c                	lbu	a5,0(a5)
201010b0:	4118                	lw	a4,0(a0)
201010b2:	00f75733          	srl	a4,a4,a5
201010b6:	42dc                	lw	a5,4(a3)
201010b8:	83c1                	srli	a5,a5,0x10
201010ba:	8b8d                	andi	a5,a5,3
201010bc:	81818693          	addi	a3,gp,-2024 # 201101f8 <FPRETable>
201010c0:	97b6                	add	a5,a5,a3
201010c2:	239c                	lbu	a5,0(a5)
201010c4:	00f757b3          	srl	a5,a4,a5
201010c8:	c15c                	sw	a5,4(a0)
201010ca:	e000f6b7          	lui	a3,0xe000f
201010ce:	d106a683          	lw	a3,-752(a3) # e000ed10 <_eusrstack+0xbfe8ed10>
201010d2:	6641                	lui	a2,0x10
201010d4:	8ef1                	and	a3,a3,a2
201010d6:	1a069d63          	bnez	a3,20101290 <RCC_GetClocksFreq+0x22a>
201010da:	c51c                	sw	a5,8(a0)
201010dc:	40021737          	lui	a4,0x40021
201010e0:	4358                	lw	a4,4(a4)
201010e2:	1a074963          	bltz	a4,20101294 <RCC_GetClocksFreq+0x22e>
201010e6:	40021637          	lui	a2,0x40021
201010ea:	4254                	lw	a3,4(a2)
201010ec:	82ad                	srli	a3,a3,0xb
201010ee:	8a9d                	andi	a3,a3,7
201010f0:	81018713          	addi	a4,gp,-2032 # 201101f0 <PPRE2Table>
201010f4:	9736                	add	a4,a4,a3
201010f6:	2318                	lbu	a4,0(a4)
201010f8:	00e7d7b3          	srl	a5,a5,a4
201010fc:	c55c                	sw	a5,12(a0)
201010fe:	4258                	lw	a4,4(a2)
20101100:	8339                	srli	a4,a4,0xe
20101102:	8b0d                	andi	a4,a4,3
20101104:	80c18693          	addi	a3,gp,-2036 # 201101ec <ADCPRETable>
20101108:	9736                	add	a4,a4,a3
2010110a:	2318                	lbu	a4,0(a4)
2010110c:	0ff77713          	zext.b	a4,a4
20101110:	02e7d7b3          	divu	a5,a5,a4
20101114:	c55c                	sw	a5,12(a0)
20101116:	8082                	ret
20101118:	017d87b7          	lui	a5,0x17d8
2010111c:	84078793          	addi	a5,a5,-1984 # 17d7840 <_data_lma+0x17d1440>
20101120:	c11c                	sw	a5,0(a0)
20101122:	bfa5                	j	2010109a <RCC_GetClocksFreq+0x34>
20101124:	500007b7          	lui	a5,0x50000
20101128:	12f70563          	beq	a4,a5,20101252 <RCC_GetClocksFreq+0x1ec>
2010112c:	02e7f063          	bgeu	a5,a4,2010114c <RCC_GetClocksFreq+0xe6>
20101130:	600007b7          	lui	a5,0x60000
20101134:	12f70563          	beq	a4,a5,2010125e <RCC_GetClocksFreq+0x1f8>
20101138:	700007b7          	lui	a5,0x70000
2010113c:	14f71463          	bne	a4,a5,20101284 <RCC_GetClocksFreq+0x21e>
20101140:	077367b7          	lui	a5,0x7736
20101144:	94078793          	addi	a5,a5,-1728 # 7735940 <_data_lma+0x772f540>
20101148:	c11c                	sw	a5,0(a0)
2010114a:	bf81                	j	2010109a <RCC_GetClocksFreq+0x34>
2010114c:	cb19                	beqz	a4,20101162 <RCC_GetClocksFreq+0xfc>
2010114e:	400007b7          	lui	a5,0x40000
20101152:	12f71963          	bne	a4,a5,20101284 <RCC_GetClocksFreq+0x21e>
20101156:	1c9c47b7          	lui	a5,0x1c9c4
2010115a:	80078793          	addi	a5,a5,-2048 # 1c9c3800 <_data_lma+0x1c9bd400>
2010115e:	c11c                	sw	a5,0(a0)
20101160:	bf2d                	j	2010109a <RCC_GetClocksFreq+0x34>
20101162:	400217b7          	lui	a5,0x40021
20101166:	4794                	lw	a3,8(a5)
20101168:	8afd                	andi	a3,a3,31
2010116a:	4798                	lw	a4,8(a5)
2010116c:	0e077713          	andi	a4,a4,224
20101170:	479c                	lw	a5,8(a5)
20101172:	83a1                	srli	a5,a5,0x8
20101174:	03f7f793          	andi	a5,a5,63
20101178:	0785                	addi	a5,a5,1 # 40021001 <_eusrstack+0x1fea1001>
2010117a:	0a000613          	li	a2,160
2010117e:	02c70963          	beq	a4,a2,201011b0 <RCC_GetClocksFreq+0x14a>
20101182:	0e000613          	li	a2,224
20101186:	06c70363          	beq	a4,a2,201011ec <RCC_GetClocksFreq+0x186>
2010118a:	08000613          	li	a2,128
2010118e:	08c70363          	beq	a4,a2,20101214 <RCC_GetClocksFreq+0x1ae>
20101192:	0c000613          	li	a2,192
20101196:	08c70663          	beq	a4,a2,20101222 <RCC_GetClocksFreq+0x1bc>
2010119a:	02000613          	li	a2,32
2010119e:	08c70963          	beq	a4,a2,20101230 <RCC_GetClocksFreq+0x1ca>
201011a2:	017d8737          	lui	a4,0x17d8
201011a6:	84070713          	addi	a4,a4,-1984 # 17d7840 <_data_lma+0x17d1440>
201011aa:	02f757b3          	divu	a5,a4,a5
201011ae:	a039                	j	201011bc <RCC_GetClocksFreq+0x156>
201011b0:	1dcd6737          	lui	a4,0x1dcd6
201011b4:	50070713          	addi	a4,a4,1280 # 1dcd6500 <_data_lma+0x1dcd0100>
201011b8:	02f757b3          	divu	a5,a4,a5
201011bc:	4711                	li	a4,4
201011be:	00e68c63          	beq	a3,a4,201011d6 <RCC_GetClocksFreq+0x170>
201011c2:	ffa68613          	addi	a2,a3,-6
201011c6:	4719                	li	a4,6
201011c8:	06c76b63          	bltu	a4,a2,2010123e <RCC_GetClocksFreq+0x1d8>
201011cc:	05500713          	li	a4,85
201011d0:	48c75733          	bext	a4,a4,a2
201011d4:	c72d                	beqz	a4,2010123e <RCC_GetClocksFreq+0x1d8>
201011d6:	20110737          	lui	a4,0x20110
201011da:	16070713          	addi	a4,a4,352 # 20110160 <PLLMULTable>
201011de:	9736                	add	a4,a4,a3
201011e0:	2318                	lbu	a4,0(a4)
201011e2:	02f707b3          	mul	a5,a4,a5
201011e6:	8385                	srli	a5,a5,0x1
201011e8:	c11c                	sw	a5,0(a0)
201011ea:	bd45                	j	2010109a <RCC_GetClocksFreq+0x34>
201011ec:	40021737          	lui	a4,0x40021
201011f0:	5b50                	lw	a2,52(a4)
201011f2:	8241                	srli	a2,a2,0x10
201011f4:	20110737          	lui	a4,0x20110
201011f8:	14070713          	addi	a4,a4,320 # 20110140 <SERDESPLLMULTable>
201011fc:	9732                	add	a4,a4,a2
201011fe:	2318                	lbu	a4,0(a4)
20101200:	017d8637          	lui	a2,0x17d8
20101204:	84060613          	addi	a2,a2,-1984 # 17d7840 <_data_lma+0x17d1440>
20101208:	02c70733          	mul	a4,a4,a2
2010120c:	8305                	srli	a4,a4,0x1
2010120e:	02f757b3          	divu	a5,a4,a5
20101212:	b76d                	j	201011bc <RCC_GetClocksFreq+0x156>
20101214:	1c9c4737          	lui	a4,0x1c9c4
20101218:	80070713          	addi	a4,a4,-2048 # 1c9c3800 <_data_lma+0x1c9bd400>
2010121c:	02f757b3          	divu	a5,a4,a5
20101220:	bf71                	j	201011bc <RCC_GetClocksFreq+0x156>
20101222:	07736737          	lui	a4,0x7736
20101226:	94070713          	addi	a4,a4,-1728 # 7735940 <_data_lma+0x772f540>
2010122a:	02f757b3          	divu	a5,a4,a5
2010122e:	b779                	j	201011bc <RCC_GetClocksFreq+0x156>
20101230:	017d8737          	lui	a4,0x17d8
20101234:	84070713          	addi	a4,a4,-1984 # 17d7840 <_data_lma+0x17d1440>
20101238:	02f757b3          	divu	a5,a4,a5
2010123c:	b741                	j	201011bc <RCC_GetClocksFreq+0x156>
2010123e:	20110737          	lui	a4,0x20110
20101242:	16070713          	addi	a4,a4,352 # 20110160 <PLLMULTable>
20101246:	9736                	add	a4,a4,a3
20101248:	2318                	lbu	a4,0(a4)
2010124a:	02f707b3          	mul	a5,a4,a5
2010124e:	c11c                	sw	a5,0(a0)
20101250:	b5a9                	j	2010109a <RCC_GetClocksFreq+0x34>
20101252:	1dcd67b7          	lui	a5,0x1dcd6
20101256:	50078793          	addi	a5,a5,1280 # 1dcd6500 <_data_lma+0x1dcd0100>
2010125a:	c11c                	sw	a5,0(a0)
2010125c:	bd3d                	j	2010109a <RCC_GetClocksFreq+0x34>
2010125e:	400217b7          	lui	a5,0x40021
20101262:	5bd8                	lw	a4,52(a5)
20101264:	8341                	srli	a4,a4,0x10
20101266:	201107b7          	lui	a5,0x20110
2010126a:	14078793          	addi	a5,a5,320 # 20110140 <SERDESPLLMULTable>
2010126e:	97ba                	add	a5,a5,a4
20101270:	239c                	lbu	a5,0(a5)
20101272:	017d8737          	lui	a4,0x17d8
20101276:	84070713          	addi	a4,a4,-1984 # 17d7840 <_data_lma+0x17d1440>
2010127a:	02e787b3          	mul	a5,a5,a4
2010127e:	8385                	srli	a5,a5,0x1
20101280:	c11c                	sw	a5,0(a0)
20101282:	bd21                	j	2010109a <RCC_GetClocksFreq+0x34>
20101284:	017d87b7          	lui	a5,0x17d8
20101288:	84078793          	addi	a5,a5,-1984 # 17d7840 <_data_lma+0x17d1440>
2010128c:	c11c                	sw	a5,0(a0)
2010128e:	b531                	j	2010109a <RCC_GetClocksFreq+0x34>
20101290:	c518                	sw	a4,8(a0)
20101292:	b5a9                	j	201010dc <RCC_GetClocksFreq+0x76>
20101294:	400217b7          	lui	a5,0x40021
20101298:	43dc                	lw	a5,4(a5)
2010129a:	83ad                	srli	a5,a5,0xb
2010129c:	8bfd                	andi	a5,a5,31
2010129e:	0795                	addi	a5,a5,5 # 40021005 <_eusrstack+0x1fea1005>
201012a0:	1c9c4737          	lui	a4,0x1c9c4
201012a4:	80070713          	addi	a4,a4,-2048 # 1c9c3800 <_data_lma+0x1c9bd400>
201012a8:	02f757b3          	divu	a5,a4,a5
201012ac:	c55c                	sw	a5,12(a0)
201012ae:	8082                	ret

201012b0 <RCC_HB2PeriphClockCmd>:
201012b0:	c599                	beqz	a1,201012be <RCC_HB2PeriphClockCmd+0xe>
201012b2:	40021737          	lui	a4,0x40021
201012b6:	4f5c                	lw	a5,28(a4)
201012b8:	8fc9                	or	a5,a5,a0
201012ba:	cf5c                	sw	a5,28(a4)
201012bc:	8082                	ret
201012be:	400217b7          	lui	a5,0x40021
201012c2:	4fd8                	lw	a4,28(a5)
201012c4:	40a77533          	andn	a0,a4,a0
201012c8:	cfc8                	sw	a0,28(a5)
201012ca:	8082                	ret

201012cc <RCC_HB1PeriphClockCmd>:
201012cc:	c599                	beqz	a1,201012da <RCC_HB1PeriphClockCmd+0xe>
201012ce:	40021737          	lui	a4,0x40021
201012d2:	531c                	lw	a5,32(a4)
201012d4:	8fc9                	or	a5,a5,a0
201012d6:	d31c                	sw	a5,32(a4)
201012d8:	8082                	ret
201012da:	400217b7          	lui	a5,0x40021
201012de:	5398                	lw	a4,32(a5)
201012e0:	40a77533          	andn	a0,a4,a0
201012e4:	d388                	sw	a0,32(a5)
201012e6:	8082                	ret

201012e8 <SPI_Init>:
201012e8:	211a                	lhu	a4,0(a0)
201012ea:	678d                	lui	a5,0x3
201012ec:	04078793          	addi	a5,a5,64 # 3040 <__stack_size+0x2840>
201012f0:	8f7d                	and	a4,a4,a5
201012f2:	0005de03          	lhu	t3,0(a1) # e000d000 <_eusrstack+0xbfe8d000>
201012f6:	0025de83          	lhu	t4,2(a1)
201012fa:	0045d303          	lhu	t1,4(a1)
201012fe:	0065d883          	lhu	a7,6(a1)
20101302:	0085d803          	lhu	a6,8(a1)
20101306:	25b2                	lhu	a2,10(a1)
20101308:	25d6                	lhu	a3,12(a1)
2010130a:	25fe                	lhu	a5,14(a1)
2010130c:	01de6e33          	or	t3,t3,t4
20101310:	01c36333          	or	t1,t1,t3
20101314:	0068e8b3          	or	a7,a7,t1
20101318:	01186833          	or	a6,a6,a7
2010131c:	01066633          	or	a2,a2,a6
20101320:	8ed1                	or	a3,a3,a2
20101322:	8fd5                	or	a5,a5,a3
20101324:	8fd9                	or	a5,a5,a4
20101326:	a11e                	sh	a5,0(a0)
20101328:	2d5e                	lhu	a5,28(a0)
2010132a:	777d                	lui	a4,0xfffff
2010132c:	7ff70713          	addi	a4,a4,2047 # fffff7ff <_eusrstack+0xdfe7f7ff>
20101330:	8ff9                	and	a5,a5,a4
20101332:	ad5e                	sh	a5,28(a0)
20101334:	299e                	lhu	a5,16(a1)
20101336:	a91e                	sh	a5,16(a0)
20101338:	8082                	ret

2010133a <SPI_Cmd>:
2010133a:	c591                	beqz	a1,20101346 <SPI_Cmd+0xc>
2010133c:	211e                	lhu	a5,0(a0)
2010133e:	0407e793          	ori	a5,a5,64
20101342:	a11e                	sh	a5,0(a0)
20101344:	8082                	ret
20101346:	211e                	lhu	a5,0(a0)
20101348:	0807c7b3          	zext.h	a5,a5
2010134c:	fbf7f793          	andi	a5,a5,-65
20101350:	0807c7b3          	zext.h	a5,a5
20101354:	a11e                	sh	a5,0(a0)
20101356:	8082                	ret

20101358 <SPI_I2S_SendData>:
20101358:	a54e                	sh	a1,12(a0)
2010135a:	8082                	ret

2010135c <SPI_I2S_ReceiveData>:
2010135c:	254a                	lhu	a0,12(a0)
2010135e:	8082                	ret

20101360 <SPI_I2S_GetFlagStatus>:
20101360:	251e                	lhu	a5,8(a0)
20101362:	8fed                	and	a5,a5,a1
20101364:	c399                	beqz	a5,2010136a <SPI_I2S_GetFlagStatus+0xa>
20101366:	4505                	li	a0,1
20101368:	8082                	ret
2010136a:	4501                	li	a0,0
2010136c:	8082                	ret

2010136e <TIM_TimeBaseInit>:
2010136e:	400137b7          	lui	a5,0x40013
20101372:	c0078793          	addi	a5,a5,-1024 # 40012c00 <_eusrstack+0x1fe92c00>
20101376:	02f50c63          	beq	a0,a5,201013ae <TIM_TimeBaseInit+0x40>
2010137a:	400137b7          	lui	a5,0x40013
2010137e:	40078793          	addi	a5,a5,1024 # 40013400 <_eusrstack+0x1fe93400>
20101382:	02f50663          	beq	a0,a5,201013ae <TIM_TimeBaseInit+0x40>
20101386:	400007b7          	lui	a5,0x40000
2010138a:	02f50263          	beq	a0,a5,201013ae <TIM_TimeBaseInit+0x40>
2010138e:	40078793          	addi	a5,a5,1024 # 40000400 <_eusrstack+0x1fe80400>
20101392:	00f50e63          	beq	a0,a5,201013ae <TIM_TimeBaseInit+0x40>
20101396:	400017b7          	lui	a5,0x40001
2010139a:	80078793          	addi	a5,a5,-2048 # 40000800 <_eusrstack+0x1fe80800>
2010139e:	00f50863          	beq	a0,a5,201013ae <TIM_TimeBaseInit+0x40>
201013a2:	400017b7          	lui	a5,0x40001
201013a6:	c0078793          	addi	a5,a5,-1024 # 40000c00 <_eusrstack+0x1fe80c00>
201013aa:	00f51e63          	bne	a0,a5,201013c6 <TIM_TimeBaseInit+0x58>
201013ae:	211e                	lhu	a5,0(a0)
201013b0:	0807c7b3          	zext.h	a5,a5
201013b4:	f8f7f793          	andi	a5,a5,-113
201013b8:	21ba                	lhu	a4,2(a1)
201013ba:	8fd9                	or	a5,a5,a4
201013bc:	cff7f793          	andi	a5,a5,-769
201013c0:	21fa                	lhu	a4,6(a1)
201013c2:	8fd9                	or	a5,a5,a4
201013c4:	a11e                	sh	a5,0(a0)
201013c6:	21de                	lhu	a5,4(a1)
201013c8:	b55e                	sh	a5,44(a0)
201013ca:	219e                	lhu	a5,0(a1)
201013cc:	b51e                	sh	a5,40(a0)
201013ce:	400137b7          	lui	a5,0x40013
201013d2:	c0078793          	addi	a5,a5,-1024 # 40012c00 <_eusrstack+0x1fe92c00>
201013d6:	00f50863          	beq	a0,a5,201013e6 <TIM_TimeBaseInit+0x78>
201013da:	400137b7          	lui	a5,0x40013
201013de:	40078793          	addi	a5,a5,1024 # 40013400 <_eusrstack+0x1fe93400>
201013e2:	00f51463          	bne	a0,a5,201013ea <TIM_TimeBaseInit+0x7c>
201013e6:	259c                	lbu	a5,8(a1)
201013e8:	b91e                	sh	a5,48(a0)
201013ea:	4785                	li	a5,1
201013ec:	a95e                	sh	a5,20(a0)
201013ee:	8082                	ret

201013f0 <TIM_OC1Init>:
201013f0:	311e                	lhu	a5,32(a0)
201013f2:	0807c7b3          	zext.h	a5,a5
201013f6:	9bf9                	andi	a5,a5,-2
201013f8:	0807c7b3          	zext.h	a5,a5
201013fc:	b11e                	sh	a5,32(a0)
201013fe:	3116                	lhu	a3,32(a0)
20101400:	0806c6b3          	zext.h	a3,a3
20101404:	2152                	lhu	a2,4(a0)
20101406:	08064633          	zext.h	a2,a2
2010140a:	2d1a                	lhu	a4,24(a0)
2010140c:	08074733          	zext.h	a4,a4
20101410:	f8c77713          	andi	a4,a4,-116
20101414:	219e                	lhu	a5,0(a1)
20101416:	8f5d                	or	a4,a4,a5
20101418:	9af5                	andi	a3,a3,-3
2010141a:	259e                	lhu	a5,8(a1)
2010141c:	8edd                	or	a3,a3,a5
2010141e:	21be                	lhu	a5,2(a1)
20101420:	8fd5                	or	a5,a5,a3
20101422:	400136b7          	lui	a3,0x40013
20101426:	c0068693          	addi	a3,a3,-1024 # 40012c00 <_eusrstack+0x1fe92c00>
2010142a:	00d50863          	beq	a0,a3,2010143a <TIM_OC1Init+0x4a>
2010142e:	400136b7          	lui	a3,0x40013
20101432:	40068693          	addi	a3,a3,1024 # 40013400 <_eusrstack+0x1fe93400>
20101436:	00d51e63          	bne	a0,a3,20101452 <TIM_OC1Init+0x62>
2010143a:	9bdd                	andi	a5,a5,-9
2010143c:	25b6                	lhu	a3,10(a1)
2010143e:	8fd5                	or	a5,a5,a3
20101440:	9bed                	andi	a5,a5,-5
20101442:	21d6                	lhu	a3,4(a1)
20101444:	8fd5                	or	a5,a5,a3
20101446:	cff67613          	andi	a2,a2,-769
2010144a:	25d6                	lhu	a3,12(a1)
2010144c:	8e55                	or	a2,a2,a3
2010144e:	25f6                	lhu	a3,14(a1)
20101450:	8e55                	or	a2,a2,a3
20101452:	a152                	sh	a2,4(a0)
20101454:	ad1a                	sh	a4,24(a0)
20101456:	21fa                	lhu	a4,6(a1)
20101458:	b95a                	sh	a4,52(a0)
2010145a:	b11e                	sh	a5,32(a0)
2010145c:	8082                	ret

2010145e <TIM_OC2Init>:
2010145e:	311e                	lhu	a5,32(a0)
20101460:	0807c7b3          	zext.h	a5,a5
20101464:	9bbd                	andi	a5,a5,-17
20101466:	0807c7b3          	zext.h	a5,a5
2010146a:	b11e                	sh	a5,32(a0)
2010146c:	3116                	lhu	a3,32(a0)
2010146e:	0806c6b3          	zext.h	a3,a3
20101472:	215a                	lhu	a4,4(a0)
20101474:	08074733          	zext.h	a4,a4
20101478:	2d12                	lhu	a2,24(a0)
2010147a:	77e5                	lui	a5,0xffff9
2010147c:	cff78793          	addi	a5,a5,-769 # ffff8cff <_eusrstack+0xdfe78cff>
20101480:	8e7d                	and	a2,a2,a5
20101482:	219e                	lhu	a5,0(a1)
20101484:	07a2                	slli	a5,a5,0x8
20101486:	0807c7b3          	zext.h	a5,a5
2010148a:	8e5d                	or	a2,a2,a5
2010148c:	fdf6f693          	andi	a3,a3,-33
20101490:	259e                	lhu	a5,8(a1)
20101492:	0792                	slli	a5,a5,0x4
20101494:	0807c7b3          	zext.h	a5,a5
20101498:	8edd                	or	a3,a3,a5
2010149a:	21be                	lhu	a5,2(a1)
2010149c:	0792                	slli	a5,a5,0x4
2010149e:	0807c7b3          	zext.h	a5,a5
201014a2:	8fd5                	or	a5,a5,a3
201014a4:	400136b7          	lui	a3,0x40013
201014a8:	c0068693          	addi	a3,a3,-1024 # 40012c00 <_eusrstack+0x1fe92c00>
201014ac:	00d50863          	beq	a0,a3,201014bc <TIM_OC2Init+0x5e>
201014b0:	400136b7          	lui	a3,0x40013
201014b4:	40068693          	addi	a3,a3,1024 # 40013400 <_eusrstack+0x1fe93400>
201014b8:	02d51e63          	bne	a0,a3,201014f4 <TIM_OC2Init+0x96>
201014bc:	f7f7f793          	andi	a5,a5,-129
201014c0:	25b6                	lhu	a3,10(a1)
201014c2:	0692                	slli	a3,a3,0x4
201014c4:	0806c6b3          	zext.h	a3,a3
201014c8:	8fd5                	or	a5,a5,a3
201014ca:	fbf7f793          	andi	a5,a5,-65
201014ce:	21d6                	lhu	a3,4(a1)
201014d0:	0692                	slli	a3,a3,0x4
201014d2:	0806c6b3          	zext.h	a3,a3
201014d6:	8fd5                	or	a5,a5,a3
201014d8:	76fd                	lui	a3,0xfffff
201014da:	3ff68693          	addi	a3,a3,1023 # fffff3ff <_eusrstack+0xdfe7f3ff>
201014de:	8f75                	and	a4,a4,a3
201014e0:	25d6                	lhu	a3,12(a1)
201014e2:	068a                	slli	a3,a3,0x2
201014e4:	0806c6b3          	zext.h	a3,a3
201014e8:	8ed9                	or	a3,a3,a4
201014ea:	25fa                	lhu	a4,14(a1)
201014ec:	070a                	slli	a4,a4,0x2
201014ee:	08074733          	zext.h	a4,a4
201014f2:	8f55                	or	a4,a4,a3
201014f4:	a15a                	sh	a4,4(a0)
201014f6:	ad12                	sh	a2,24(a0)
201014f8:	21fa                	lhu	a4,6(a1)
201014fa:	bd1a                	sh	a4,56(a0)
201014fc:	b11e                	sh	a5,32(a0)
201014fe:	8082                	ret

20101500 <TIM_OC3Init>:
20101500:	311e                	lhu	a5,32(a0)
20101502:	0807c7b3          	zext.h	a5,a5
20101506:	eff7f793          	andi	a5,a5,-257
2010150a:	0807c7b3          	zext.h	a5,a5
2010150e:	b11e                	sh	a5,32(a0)
20101510:	3112                	lhu	a2,32(a0)
20101512:	08064633          	zext.h	a2,a2
20101516:	215a                	lhu	a4,4(a0)
20101518:	08074733          	zext.h	a4,a4
2010151c:	2d56                	lhu	a3,28(a0)
2010151e:	0806c6b3          	zext.h	a3,a3
20101522:	f8c6f693          	andi	a3,a3,-116
20101526:	219e                	lhu	a5,0(a1)
20101528:	8edd                	or	a3,a3,a5
2010152a:	dff67613          	andi	a2,a2,-513
2010152e:	259e                	lhu	a5,8(a1)
20101530:	07a2                	slli	a5,a5,0x8
20101532:	0807c7b3          	zext.h	a5,a5
20101536:	8e5d                	or	a2,a2,a5
20101538:	21be                	lhu	a5,2(a1)
2010153a:	07a2                	slli	a5,a5,0x8
2010153c:	0807c7b3          	zext.h	a5,a5
20101540:	8fd1                	or	a5,a5,a2
20101542:	40013637          	lui	a2,0x40013
20101546:	c0060613          	addi	a2,a2,-1024 # 40012c00 <_eusrstack+0x1fe92c00>
2010154a:	00c50863          	beq	a0,a2,2010155a <TIM_OC3Init+0x5a>
2010154e:	40013637          	lui	a2,0x40013
20101552:	40060613          	addi	a2,a2,1024 # 40013400 <_eusrstack+0x1fe93400>
20101556:	02c51f63          	bne	a0,a2,20101594 <TIM_OC3Init+0x94>
2010155a:	767d                	lui	a2,0xfffff
2010155c:	7ff60613          	addi	a2,a2,2047 # fffff7ff <_eusrstack+0xdfe7f7ff>
20101560:	8ff1                	and	a5,a5,a2
20101562:	25b2                	lhu	a2,10(a1)
20101564:	0622                	slli	a2,a2,0x8
20101566:	08064633          	zext.h	a2,a2
2010156a:	8e5d                	or	a2,a2,a5
2010156c:	bff67613          	andi	a2,a2,-1025
20101570:	21de                	lhu	a5,4(a1)
20101572:	07a2                	slli	a5,a5,0x8
20101574:	0807c7b3          	zext.h	a5,a5
20101578:	8fd1                	or	a5,a5,a2
2010157a:	7675                	lui	a2,0xffffd
2010157c:	167d                	addi	a2,a2,-1 # ffffcfff <_eusrstack+0xdfe7cfff>
2010157e:	8f71                	and	a4,a4,a2
20101580:	25d2                	lhu	a2,12(a1)
20101582:	0612                	slli	a2,a2,0x4
20101584:	08064633          	zext.h	a2,a2
20101588:	8e59                	or	a2,a2,a4
2010158a:	25fa                	lhu	a4,14(a1)
2010158c:	0712                	slli	a4,a4,0x4
2010158e:	08074733          	zext.h	a4,a4
20101592:	8f51                	or	a4,a4,a2
20101594:	a15a                	sh	a4,4(a0)
20101596:	ad56                	sh	a3,28(a0)
20101598:	21fa                	lhu	a4,6(a1)
2010159a:	bd5a                	sh	a4,60(a0)
2010159c:	b11e                	sh	a5,32(a0)
2010159e:	8082                	ret

201015a0 <TIM_OC4Init>:
201015a0:	311e                	lhu	a5,32(a0)
201015a2:	777d                	lui	a4,0xfffff
201015a4:	177d                	addi	a4,a4,-1 # ffffefff <_eusrstack+0xdfe7efff>
201015a6:	8ff9                	and	a5,a5,a4
201015a8:	b11e                	sh	a5,32(a0)
201015aa:	311a                	lhu	a4,32(a0)
201015ac:	215e                	lhu	a5,4(a0)
201015ae:	0807c7b3          	zext.h	a5,a5
201015b2:	2d52                	lhu	a2,28(a0)
201015b4:	76e5                	lui	a3,0xffff9
201015b6:	cff68693          	addi	a3,a3,-769 # ffff8cff <_eusrstack+0xdfe78cff>
201015ba:	8e75                	and	a2,a2,a3
201015bc:	2196                	lhu	a3,0(a1)
201015be:	06a2                	slli	a3,a3,0x8
201015c0:	0806c6b3          	zext.h	a3,a3
201015c4:	8ed1                	or	a3,a3,a2
201015c6:	7679                	lui	a2,0xffffe
201015c8:	167d                	addi	a2,a2,-1 # ffffdfff <_eusrstack+0xdfe7dfff>
201015ca:	8f71                	and	a4,a4,a2
201015cc:	2592                	lhu	a2,8(a1)
201015ce:	0632                	slli	a2,a2,0xc
201015d0:	08064633          	zext.h	a2,a2
201015d4:	8e59                	or	a2,a2,a4
201015d6:	21ba                	lhu	a4,2(a1)
201015d8:	0732                	slli	a4,a4,0xc
201015da:	08074733          	zext.h	a4,a4
201015de:	8f51                	or	a4,a4,a2
201015e0:	40013637          	lui	a2,0x40013
201015e4:	c0060613          	addi	a2,a2,-1024 # 40012c00 <_eusrstack+0x1fe92c00>
201015e8:	00c50863          	beq	a0,a2,201015f8 <TIM_OC4Init+0x58>
201015ec:	40013637          	lui	a2,0x40013
201015f0:	40060613          	addi	a2,a2,1024 # 40013400 <_eusrstack+0x1fe93400>
201015f4:	00c51a63          	bne	a0,a2,20101608 <TIM_OC4Init+0x68>
201015f8:	7671                	lui	a2,0xffffc
201015fa:	167d                	addi	a2,a2,-1 # ffffbfff <_eusrstack+0xdfe7bfff>
201015fc:	8e7d                	and	a2,a2,a5
201015fe:	25de                	lhu	a5,12(a1)
20101600:	079a                	slli	a5,a5,0x6
20101602:	0807c7b3          	zext.h	a5,a5
20101606:	8fd1                	or	a5,a5,a2
20101608:	a15e                	sh	a5,4(a0)
2010160a:	ad56                	sh	a3,28(a0)
2010160c:	21fe                	lhu	a5,6(a1)
2010160e:	04f51023          	sh	a5,64(a0)
20101612:	b11a                	sh	a4,32(a0)
20101614:	8082                	ret

20101616 <TIM_Cmd>:
20101616:	c591                	beqz	a1,20101622 <TIM_Cmd+0xc>
20101618:	211e                	lhu	a5,0(a0)
2010161a:	0017e793          	ori	a5,a5,1
2010161e:	a11e                	sh	a5,0(a0)
20101620:	8082                	ret
20101622:	211e                	lhu	a5,0(a0)
20101624:	0807c7b3          	zext.h	a5,a5
20101628:	9bf9                	andi	a5,a5,-2
2010162a:	0807c7b3          	zext.h	a5,a5
2010162e:	a11e                	sh	a5,0(a0)
20101630:	8082                	ret

20101632 <TIM_CtrlPWMOutputs>:
20101632:	c991                	beqz	a1,20101646 <TIM_CtrlPWMOutputs+0x14>
20101634:	04455783          	lhu	a5,68(a0)
20101638:	7761                	lui	a4,0xffff8
2010163a:	8fd9                	or	a5,a5,a4
2010163c:	0807c7b3          	zext.h	a5,a5
20101640:	04f51223          	sh	a5,68(a0)
20101644:	8082                	ret
20101646:	04455783          	lhu	a5,68(a0)
2010164a:	6721                	lui	a4,0x8
2010164c:	177d                	addi	a4,a4,-1 # 7fff <_data_lma+0x1bff>
2010164e:	8ff9                	and	a5,a5,a4
20101650:	04f51223          	sh	a5,68(a0)
20101654:	8082                	ret

20101656 <TIM_ARRPreloadConfig>:
20101656:	c591                	beqz	a1,20101662 <TIM_ARRPreloadConfig+0xc>
20101658:	211e                	lhu	a5,0(a0)
2010165a:	0807e793          	ori	a5,a5,128
2010165e:	a11e                	sh	a5,0(a0)
20101660:	8082                	ret
20101662:	211e                	lhu	a5,0(a0)
20101664:	0807c7b3          	zext.h	a5,a5
20101668:	f7f7f793          	andi	a5,a5,-129
2010166c:	0807c7b3          	zext.h	a5,a5
20101670:	a11e                	sh	a5,0(a0)
20101672:	8082                	ret

20101674 <TIM_OC1PreloadConfig>:
20101674:	2d1e                	lhu	a5,24(a0)
20101676:	0807c7b3          	zext.h	a5,a5
2010167a:	9bdd                	andi	a5,a5,-9
2010167c:	8fcd                	or	a5,a5,a1
2010167e:	ad1e                	sh	a5,24(a0)
20101680:	8082                	ret

20101682 <TIM_OC2PreloadConfig>:
20101682:	2d1e                	lhu	a5,24(a0)
20101684:	777d                	lui	a4,0xfffff
20101686:	7ff70713          	addi	a4,a4,2047 # fffff7ff <_eusrstack+0xdfe7f7ff>
2010168a:	8ff9                	and	a5,a5,a4
2010168c:	05a2                	slli	a1,a1,0x8
2010168e:	0805c5b3          	zext.h	a1,a1
20101692:	8ddd                	or	a1,a1,a5
20101694:	ad0e                	sh	a1,24(a0)
20101696:	8082                	ret

20101698 <TIM_OC3PreloadConfig>:
20101698:	2d5e                	lhu	a5,28(a0)
2010169a:	0807c7b3          	zext.h	a5,a5
2010169e:	9bdd                	andi	a5,a5,-9
201016a0:	8fcd                	or	a5,a5,a1
201016a2:	ad5e                	sh	a5,28(a0)
201016a4:	8082                	ret

201016a6 <TIM_OC4PreloadConfig>:
201016a6:	2d5e                	lhu	a5,28(a0)
201016a8:	777d                	lui	a4,0xfffff
201016aa:	7ff70713          	addi	a4,a4,2047 # fffff7ff <_eusrstack+0xdfe7f7ff>
201016ae:	8ff9                	and	a5,a5,a4
201016b0:	05a2                	slli	a1,a1,0x8
201016b2:	0805c5b3          	zext.h	a1,a1
201016b6:	8ddd                	or	a1,a1,a5
201016b8:	ad4e                	sh	a1,28(a0)
201016ba:	8082                	ret

201016bc <TIM_SetCompare1>:
201016bc:	b94e                	sh	a1,52(a0)
201016be:	8082                	ret

201016c0 <TIM_SetCompare2>:
201016c0:	bd0e                	sh	a1,56(a0)
201016c2:	8082                	ret

201016c4 <TIM_SetCompare3>:
201016c4:	bd4e                	sh	a1,60(a0)
201016c6:	8082                	ret

201016c8 <TIM_SetCompare4>:
201016c8:	04b51023          	sh	a1,64(a0)
201016cc:	8082                	ret

201016ce <USART_Init>:
201016ce:	bb7fe2ef          	jal	t0,20100284 <__riscv_save_0>
201016d2:	1141                	addi	sp,sp,-16
201016d4:	842a                	mv	s0,a0
201016d6:	84ae                	mv	s1,a1
201016d8:	259a                	lhu	a4,8(a1)
201016da:	77fd                	lui	a5,0xfffff
201016dc:	8ff9                	and	a5,a5,a4
201016de:	66bd                	lui	a3,0xf
201016e0:	08d78a63          	beq	a5,a3,20101774 <USART_Init+0xa6>
201016e4:	281a                	lhu	a4,16(s0)
201016e6:	20fe                	lhu	a5,6(s1)
201016e8:	76f5                	lui	a3,0xffffd
201016ea:	16fd                	addi	a3,a3,-1 # ffffcfff <_eusrstack+0xdfe7cfff>
201016ec:	8f75                	and	a4,a4,a3
201016ee:	8fd9                	or	a5,a5,a4
201016f0:	a81e                	sh	a5,16(s0)
201016f2:	245a                	lhu	a4,12(s0)
201016f4:	20d6                	lhu	a3,4(s1)
201016f6:	2492                	lhu	a2,8(s1)
201016f8:	24be                	lhu	a5,10(s1)
201016fa:	8ed1                	or	a3,a3,a2
201016fc:	8fd5                	or	a5,a5,a3
201016fe:	668d                	lui	a3,0x3
20101700:	9f368693          	addi	a3,a3,-1549 # 29f3 <__stack_size+0x21f3>
20101704:	8f75                	and	a4,a4,a3
20101706:	8fd9                	or	a5,a5,a4
20101708:	a45e                	sh	a5,12(s0)
2010170a:	285e                	lhu	a5,20(s0)
2010170c:	0807c7b3          	zext.h	a5,a5
20101710:	24da                	lhu	a4,12(s1)
20101712:	cff7f793          	andi	a5,a5,-769
20101716:	8fd9                	or	a5,a5,a4
20101718:	a85e                	sh	a5,20(s0)
2010171a:	850a                	mv	a0,sp
2010171c:	94bff0ef          	jal	ra,20101066 <RCC_GetClocksFreq>
20101720:	4792                	lw	a5,4(sp)
20101722:	4565                	li	a0,25
20101724:	02f535b3          	mulhu	a1,a0,a5
20101728:	4090                	lw	a2,0(s1)
2010172a:	060a                	slli	a2,a2,0x2
2010172c:	4681                	li	a3,0
2010172e:	02f50533          	mul	a0,a0,a5
20101732:	7ba020ef          	jal	ra,20103eec <__udivdi3>
20101736:	06400713          	li	a4,100
2010173a:	02e557b3          	divu	a5,a0,a4
2010173e:	00479693          	slli	a3,a5,0x4
20101742:	10000637          	lui	a2,0x10000
20101746:	167d                	addi	a2,a2,-1 # fffffff <_data_lma+0xfff9bff>
20101748:	8ff1                	and	a5,a5,a2
2010174a:	02e787b3          	mul	a5,a5,a4
2010174e:	40f507b3          	sub	a5,a0,a5
20101752:	0792                	slli	a5,a5,0x4
20101754:	03278793          	addi	a5,a5,50 # fffff032 <_eusrstack+0xdfe7f032>
20101758:	02e7d733          	divu	a4,a5,a4
2010175c:	63f00613          	li	a2,1599
20101760:	02f67463          	bgeu	a2,a5,20101788 <USART_Init+0xba>
20101764:	01068793          	addi	a5,a3,16
20101768:	0807c7b3          	zext.h	a5,a5
2010176c:	a41e                	sh	a5,8(s0)
2010176e:	0141                	addi	sp,sp,16
20101770:	b39fe06f          	j	201002a8 <__riscv_restore_0>
20101774:	2d5e                	lhu	a5,28(a0)
20101776:	0807c7b3          	zext.h	a5,a5
2010177a:	9bcd                	andi	a5,a5,-13
2010177c:	8b31                	andi	a4,a4,12
2010177e:	8f5d                	or	a4,a4,a5
20101780:	ad5a                	sh	a4,28(a0)
20101782:	00059423          	sh	zero,8(a1)
20101786:	bfb9                	j	201016e4 <USART_Init+0x16>
20101788:	8b3d                	andi	a4,a4,15
2010178a:	00d767b3          	or	a5,a4,a3
2010178e:	bfe9                	j	20101768 <USART_Init+0x9a>

20101790 <USART_Cmd>:
20101790:	c591                	beqz	a1,2010179c <USART_Cmd+0xc>
20101792:	255e                	lhu	a5,12(a0)
20101794:	28d79793          	bseti	a5,a5,0xd
20101798:	a55e                	sh	a5,12(a0)
2010179a:	8082                	ret
2010179c:	255e                	lhu	a5,12(a0)
2010179e:	7779                	lui	a4,0xffffe
201017a0:	177d                	addi	a4,a4,-1 # ffffdfff <_eusrstack+0xdfe7dfff>
201017a2:	8ff9                	and	a5,a5,a4
201017a4:	a55e                	sh	a5,12(a0)
201017a6:	8082                	ret

201017a8 <USART_ITConfig>:
201017a8:	872a                	mv	a4,a0
201017aa:	0ff5f793          	zext.b	a5,a1
201017ae:	8395                	srli	a5,a5,0x5
201017b0:	4685                	li	a3,1
201017b2:	28b015b3          	bset	a1,zero,a1
201017b6:	00d78e63          	beq	a5,a3,201017d2 <USART_ITConfig+0x2a>
201017ba:	4689                	li	a3,2
201017bc:	02d78263          	beq	a5,a3,201017e0 <USART_ITConfig+0x38>
201017c0:	468d                	li	a3,3
201017c2:	02d78263          	beq	a5,a3,201017e6 <USART_ITConfig+0x3e>
201017c6:	4691                	li	a3,4
201017c8:	00d79763          	bne	a5,a3,201017d6 <USART_ITConfig+0x2e>
201017cc:	01c50713          	addi	a4,a0,28
201017d0:	a019                	j	201017d6 <USART_ITConfig+0x2e>
201017d2:	00c50713          	addi	a4,a0,12
201017d6:	ca19                	beqz	a2,201017ec <USART_ITConfig+0x44>
201017d8:	431c                	lw	a5,0(a4)
201017da:	8fcd                	or	a5,a5,a1
201017dc:	c31c                	sw	a5,0(a4)
201017de:	8082                	ret
201017e0:	01050713          	addi	a4,a0,16
201017e4:	bfcd                	j	201017d6 <USART_ITConfig+0x2e>
201017e6:	01450713          	addi	a4,a0,20
201017ea:	b7f5                	j	201017d6 <USART_ITConfig+0x2e>
201017ec:	431c                	lw	a5,0(a4)
201017ee:	40b7f5b3          	andn	a1,a5,a1
201017f2:	c30c                	sw	a1,0(a4)
201017f4:	8082                	ret

201017f6 <USART_SendData>:
201017f6:	1ff5f593          	andi	a1,a1,511
201017fa:	a14e                	sh	a1,4(a0)
201017fc:	8082                	ret

201017fe <USART_ReceiveData>:
201017fe:	214a                	lhu	a0,4(a0)
20101800:	1ff57513          	andi	a0,a0,511
20101804:	8082                	ret

20101806 <USART_GetFlagStatus>:
20101806:	211e                	lhu	a5,0(a0)
20101808:	8fed                	and	a5,a5,a1
2010180a:	c399                	beqz	a5,20101810 <USART_GetFlagStatus+0xa>
2010180c:	4505                	li	a0,1
2010180e:	8082                	ret
20101810:	4501                	li	a0,0
20101812:	8082                	ret

20101814 <USART_GetITStatus>:
20101814:	0ff5f793          	zext.b	a5,a1
20101818:	8395                	srli	a5,a5,0x5
2010181a:	4685                	li	a3,1
2010181c:	28b01733          	bset	a4,zero,a1
20101820:	00d78e63          	beq	a5,a3,2010183c <USART_GetITStatus+0x28>
20101824:	4689                	li	a3,2
20101826:	02d78663          	beq	a5,a3,20101852 <USART_GetITStatus+0x3e>
2010182a:	468d                	li	a3,3
2010182c:	02d78663          	beq	a5,a3,20101858 <USART_GetITStatus+0x44>
20101830:	4691                	li	a3,4
20101832:	00d79763          	bne	a5,a3,20101840 <USART_GetITStatus+0x2c>
20101836:	2d5e                	lhu	a5,28(a0)
20101838:	8f7d                	and	a4,a4,a5
2010183a:	a019                	j	20101840 <USART_GetITStatus+0x2c>
2010183c:	255e                	lhu	a5,12(a0)
2010183e:	8f7d                	and	a4,a4,a5
20101840:	81a1                	srli	a1,a1,0x8
20101842:	28b015b3          	bset	a1,zero,a1
20101846:	211e                	lhu	a5,0(a0)
20101848:	8fed                	and	a5,a5,a1
2010184a:	cb11                	beqz	a4,2010185e <USART_GetITStatus+0x4a>
2010184c:	eb99                	bnez	a5,20101862 <USART_GetITStatus+0x4e>
2010184e:	4501                	li	a0,0
20101850:	8082                	ret
20101852:	291e                	lhu	a5,16(a0)
20101854:	8f7d                	and	a4,a4,a5
20101856:	b7ed                	j	20101840 <USART_GetITStatus+0x2c>
20101858:	295e                	lhu	a5,20(a0)
2010185a:	8f7d                	and	a4,a4,a5
2010185c:	b7d5                	j	20101840 <USART_GetITStatus+0x2c>
2010185e:	4501                	li	a0,0
20101860:	8082                	ret
20101862:	4505                	li	a0,1
20101864:	8082                	ret

20101866 <atk_ms901m_write_reg_by_id>:
20101866:	a1ffe2ef          	jal	t0,20100284 <__riscv_save_0>
2010186a:	1141                	addi	sp,sp,-16
2010186c:	05500793          	li	a5,85
20101870:	845c                	sb	a5,8(sp)
20101872:	faf00793          	li	a5,-81
20101876:	84dc                	sb	a5,9(sp)
20101878:	8548                	sb	a0,10(sp)
2010187a:	85cc                	sb	a1,11(sp)
2010187c:	4785                	li	a5,1
2010187e:	00f58963          	beq	a1,a5,20101890 <atk_ms901m_write_reg_by_id+0x2a>
20101882:	4789                	li	a5,2
20101884:	02f58663          	beq	a1,a5,201018b0 <atk_ms901m_write_reg_by_id+0x4a>
20101888:	4509                	li	a0,2
2010188a:	0141                	addi	sp,sp,16
2010188c:	a1dfe06f          	j	201002a8 <__riscv_restore_0>
20101890:	2218                	lbu	a4,0(a2)
20101892:	8658                	sb	a4,12(sp)
20101894:	00450793          	addi	a5,a0,4
20101898:	0ff7f793          	zext.b	a5,a5
2010189c:	97ae                	add	a5,a5,a1
2010189e:	0ff7f793          	zext.b	a5,a5
201018a2:	973e                	add	a4,a4,a5
201018a4:	86d8                	sb	a4,13(sp)
201018a6:	4599                	li	a1,6
201018a8:	0028                	addi	a0,sp,8
201018aa:	2ebd                	jal	20101c28 <atk_ms901m_uart_send>
201018ac:	4501                	li	a0,0
201018ae:	bff1                	j	2010188a <atk_ms901m_write_reg_by_id+0x24>
201018b0:	221c                	lbu	a5,0(a2)
201018b2:	865c                	sb	a5,12(sp)
201018b4:	3218                	lbu	a4,1(a2)
201018b6:	86d8                	sb	a4,13(sp)
201018b8:	0511                	addi	a0,a0,4
201018ba:	0ff57513          	zext.b	a0,a0
201018be:	95aa                	add	a1,a1,a0
201018c0:	0ff5f513          	zext.b	a0,a1
201018c4:	97aa                	add	a5,a5,a0
201018c6:	0ff7f793          	zext.b	a5,a5
201018ca:	973e                	add	a4,a4,a5
201018cc:	8758                	sb	a4,14(sp)
201018ce:	459d                	li	a1,7
201018d0:	0028                	addi	a0,sp,8
201018d2:	2e99                	jal	20101c28 <atk_ms901m_uart_send>
201018d4:	4501                	li	a0,0
201018d6:	bf55                	j	2010188a <atk_ms901m_write_reg_by_id+0x24>

201018d8 <atk_ms901m_get_frame_by_id>:
201018d8:	985fe2ef          	jal	t0,2010025c <__riscv_save_10>
201018dc:	1141                	addi	sp,sp,-16
201018de:	8a2a                	mv	s4,a0
201018e0:	8bae                	mv	s7,a1
201018e2:	8b32                	mv	s6,a2
201018e4:	89b6                	mv	s3,a3
201018e6:	4401                	li	s0,0
201018e8:	4a81                	li	s5,0
201018ea:	4901                	li	s2,0
201018ec:	a209                	j	201019ee <atk_ms901m_get_frame_by_id+0x116>
201018ee:	06400513          	li	a0,100
201018f2:	163010ef          	jal	ra,20103254 <Delay_Us>
201018f6:	0405                	addi	s0,s0,1
201018f8:	08044433          	zext.h	s0,s0
201018fc:	47a5                	li	a5,9
201018fe:	0e87f863          	bgeu	a5,s0,201019ee <atk_ms901m_get_frame_by_id+0x116>
20101902:	19fd                	addi	s3,s3,-1
20101904:	8426                	mv	s0,s1
20101906:	a0e5                	j	201019ee <atk_ms901m_get_frame_by_id+0x116>
20101908:	879c                	lbu	a5,15(sp)
2010190a:	05500713          	li	a4,85
2010190e:	0ce79463          	bne	a5,a4,201019d6 <atk_ms901m_get_frame_by_id+0xfe>
20101912:	00fa0023          	sb	a5,0(s4)
20101916:	02fa0023          	sb	a5,32(s4)
2010191a:	4905                	li	s2,1
2010191c:	a86d                	j	201019d6 <atk_ms901m_get_frame_by_id+0xfe>
2010191e:	000b1763          	bnez	s6,2010192c <atk_ms901m_get_frame_by_id+0x54>
20101922:	879c                	lbu	a5,15(sp)
20101924:	05500713          	li	a4,85
20101928:	00e78763          	beq	a5,a4,20101936 <atk_ms901m_get_frame_by_id+0x5e>
2010192c:	4785                	li	a5,1
2010192e:	00fb0d63          	beq	s6,a5,20101948 <atk_ms901m_get_frame_by_id+0x70>
20101932:	4901                	li	s2,0
20101934:	a04d                	j	201019d6 <atk_ms901m_get_frame_by_id+0xfe>
20101936:	00fa00a3          	sb	a5,1(s4)
2010193a:	020a4703          	lbu	a4,32(s4)
2010193e:	97ba                	add	a5,a5,a4
20101940:	02fa0023          	sb	a5,32(s4)
20101944:	4909                	li	s2,2
20101946:	a841                	j	201019d6 <atk_ms901m_get_frame_by_id+0xfe>
20101948:	879c                	lbu	a5,15(sp)
2010194a:	0af00713          	li	a4,175
2010194e:	00e78463          	beq	a5,a4,20101956 <atk_ms901m_get_frame_by_id+0x7e>
20101952:	4901                	li	s2,0
20101954:	a049                	j	201019d6 <atk_ms901m_get_frame_by_id+0xfe>
20101956:	00fa00a3          	sb	a5,1(s4)
2010195a:	020a4703          	lbu	a4,32(s4)
2010195e:	97ba                	add	a5,a5,a4
20101960:	02fa0023          	sb	a5,32(s4)
20101964:	4909                	li	s2,2
20101966:	a885                	j	201019d6 <atk_ms901m_get_frame_by_id+0xfe>
20101968:	879c                	lbu	a5,15(sp)
2010196a:	01778463          	beq	a5,s7,20101972 <atk_ms901m_get_frame_by_id+0x9a>
2010196e:	4901                	li	s2,0
20101970:	a09d                	j	201019d6 <atk_ms901m_get_frame_by_id+0xfe>
20101972:	00fa0123          	sb	a5,2(s4)
20101976:	020a4703          	lbu	a4,32(s4)
2010197a:	97ba                	add	a5,a5,a4
2010197c:	02fa0023          	sb	a5,32(s4)
20101980:	4911                	li	s2,4
20101982:	a891                	j	201019d6 <atk_ms901m_get_frame_by_id+0xfe>
20101984:	879c                	lbu	a5,15(sp)
20101986:	4771                	li	a4,28
20101988:	08f76763          	bltu	a4,a5,20101a16 <atk_ms901m_get_frame_by_id+0x13e>
2010198c:	00fa01a3          	sb	a5,3(s4)
20101990:	020a4703          	lbu	a4,32(s4)
20101994:	973e                	add	a4,a4,a5
20101996:	02ea0023          	sb	a4,32(s4)
2010199a:	e3c1                	bnez	a5,20101a1a <atk_ms901m_get_frame_by_id+0x142>
2010199c:	4941                	li	s2,16
2010199e:	a825                	j	201019d6 <atk_ms901m_get_frame_by_id+0xfe>
201019a0:	879c                	lbu	a5,15(sp)
201019a2:	015a0733          	add	a4,s4,s5
201019a6:	a35c                	sb	a5,4(a4)
201019a8:	020a4703          	lbu	a4,32(s4)
201019ac:	97ba                	add	a5,a5,a4
201019ae:	02fa0023          	sb	a5,32(s4)
201019b2:	0a85                	addi	s5,s5,1
201019b4:	0ffafa93          	zext.b	s5,s5
201019b8:	003a4783          	lbu	a5,3(s4)
201019bc:	01579d63          	bne	a5,s5,201019d6 <atk_ms901m_get_frame_by_id+0xfe>
201019c0:	4a81                	li	s5,0
201019c2:	4941                	li	s2,16
201019c4:	a809                	j	201019d6 <atk_ms901m_get_frame_by_id+0xfe>
201019c6:	020a4703          	lbu	a4,32(s4)
201019ca:	879c                	lbu	a5,15(sp)
201019cc:	04f70d63          	beq	a4,a5,20101a26 <atk_ms901m_get_frame_by_id+0x14e>
201019d0:	4901                	li	s2,0
201019d2:	a011                	j	201019d6 <atk_ms901m_get_frame_by_id+0xfe>
201019d4:	4901                	li	s2,0
201019d6:	06400513          	li	a0,100
201019da:	07b010ef          	jal	ra,20103254 <Delay_Us>
201019de:	0405                	addi	s0,s0,1
201019e0:	08044433          	zext.h	s0,s0
201019e4:	47a5                	li	a5,9
201019e6:	0087f463          	bgeu	a5,s0,201019ee <atk_ms901m_get_frame_by_id+0x116>
201019ea:	19fd                	addi	s3,s3,-1
201019ec:	4401                	li	s0,0
201019ee:	02098863          	beqz	s3,20101a1e <atk_ms901m_get_frame_by_id+0x146>
201019f2:	4585                	li	a1,1
201019f4:	00f10513          	addi	a0,sp,15
201019f8:	2275                	jal	20101ba4 <atk_ms901m_uart_rx_fifo_read>
201019fa:	84aa                	mv	s1,a0
201019fc:	ee0509e3          	beqz	a0,201018ee <atk_ms901m_get_frame_by_id+0x16>
20101a00:	47c1                	li	a5,16
20101a02:	fd27e9e3          	bltu	a5,s2,201019d4 <atk_ms901m_get_frame_by_id+0xfc>
20101a06:	201067b7          	lui	a5,0x20106
20101a0a:	9c078793          	addi	a5,a5,-1600 # 201059c0 <_read+0x36>
20101a0e:	20f947b3          	sh2add	a5,s2,a5
20101a12:	439c                	lw	a5,0(a5)
20101a14:	8782                	jr	a5
20101a16:	4901                	li	s2,0
20101a18:	bf7d                	j	201019d6 <atk_ms901m_get_frame_by_id+0xfe>
20101a1a:	4921                	li	s2,8
20101a1c:	bf6d                	j	201019d6 <atk_ms901m_get_frame_by_id+0xfe>
20101a1e:	450d                	li	a0,3
20101a20:	0141                	addi	sp,sp,16
20101a22:	873fe06f          	j	20100294 <__riscv_restore_10>
20101a26:	4501                	li	a0,0
20101a28:	bfe5                	j	20101a20 <atk_ms901m_get_frame_by_id+0x148>

20101a2a <atk_ms901m_read_reg_by_id>:
20101a2a:	85bfe2ef          	jal	t0,20100284 <__riscv_save_0>
20101a2e:	7179                	addi	sp,sp,-48
20101a30:	84aa                	mv	s1,a0
20101a32:	842e                	mv	s0,a1
20101a34:	8932                	mv	s2,a2
20101a36:	c202                	sw	zero,4(sp)
20101a38:	c402                	sw	zero,8(sp)
20101a3a:	c602                	sw	zero,12(sp)
20101a3c:	c802                	sw	zero,16(sp)
20101a3e:	ca02                	sw	zero,20(sp)
20101a40:	cc02                	sw	zero,24(sp)
20101a42:	ce02                	sw	zero,28(sp)
20101a44:	d002                	sw	zero,32(sp)
20101a46:	02010223          	sb	zero,36(sp)
20101a4a:	05500793          	li	a5,85
20101a4e:	02f10423          	sb	a5,40(sp)
20101a52:	faf00793          	li	a5,-81
20101a56:	02f104a3          	sb	a5,41(sp)
20101a5a:	08056793          	ori	a5,a0,128
20101a5e:	02f10523          	sb	a5,42(sp)
20101a62:	4705                	li	a4,1
20101a64:	02e105a3          	sb	a4,43(sp)
20101a68:	02010623          	sb	zero,44(sp)
20101a6c:	0795                	addi	a5,a5,5
20101a6e:	02f106a3          	sb	a5,45(sp)
20101a72:	4599                	li	a1,6
20101a74:	1028                	addi	a0,sp,40
20101a76:	2a4d                	jal	20101c28 <atk_ms901m_uart_send>
20101a78:	86ca                	mv	a3,s2
20101a7a:	4605                	li	a2,1
20101a7c:	85a6                	mv	a1,s1
20101a7e:	0048                	addi	a0,sp,4
20101a80:	3da1                	jal	201018d8 <atk_ms901m_get_frame_by_id>
20101a82:	87aa                	mv	a5,a0
20101a84:	cd11                	beqz	a0,20101aa0 <atk_ms901m_read_reg_by_id+0x76>
20101a86:	4501                	li	a0,0
20101a88:	a839                	j	20101aa6 <atk_ms901m_read_reg_by_id+0x7c>
20101a8a:	00f40733          	add	a4,s0,a5
20101a8e:	03078693          	addi	a3,a5,48
20101a92:	968a                	add	a3,a3,sp
20101a94:	fd86c683          	lbu	a3,-40(a3)
20101a98:	a314                	sb	a3,0(a4)
20101a9a:	0785                	addi	a5,a5,1
20101a9c:	0ff7f793          	zext.b	a5,a5
20101aa0:	8388                	lbu	a0,7(sp)
20101aa2:	fea7e4e3          	bltu	a5,a0,20101a8a <atk_ms901m_read_reg_by_id+0x60>
20101aa6:	6145                	addi	sp,sp,48
20101aa8:	801fe06f          	j	201002a8 <__riscv_restore_0>

20101aac <atk_ms901m_init>:
20101aac:	fd8fe2ef          	jal	t0,20100284 <__riscv_save_0>
20101ab0:	1141                	addi	sp,sp,-16
20101ab2:	842a                	mv	s0,a0
20101ab4:	227d                	jal	20101c62 <atk_ms901m_uart_init>
20101ab6:	06400513          	li	a0,100
20101aba:	7d4010ef          	jal	ra,2010328e <Delay_Ms>
20101abe:	0c800613          	li	a2,200
20101ac2:	81d18593          	addi	a1,gp,-2019 # 201101fd <g_gyro_fsr_idx>
20101ac6:	450d                	li	a0,3
20101ac8:	378d                	jal	20101a2a <atk_ms901m_read_reg_by_id>
20101aca:	e135                	bnez	a0,20101b2e <atk_ms901m_init+0x82>
20101acc:	20106537          	lui	a0,0x20106
20101ad0:	a0450513          	addi	a0,a0,-1532 # 20105a04 <_read+0x7a>
20101ad4:	0f3020ef          	jal	ra,201043c6 <puts>
20101ad8:	0c800613          	li	a2,200
20101adc:	81c18593          	addi	a1,gp,-2020 # 201101fc <g_accel_fsr_idx>
20101ae0:	4511                	li	a0,4
20101ae2:	37a1                	jal	20101a2a <atk_ms901m_read_reg_by_id>
20101ae4:	e525                	bnez	a0,20101b4c <atk_ms901m_init+0xa0>
20101ae6:	20106537          	lui	a0,0x20106
20101aea:	a6450513          	addi	a0,a0,-1436 # 20105a64 <_read+0xda>
20101aee:	0d9020ef          	jal	ra,201043c6 <puts>
20101af2:	4795                	li	a5,5
20101af4:	87dc                	sb	a5,15(sp)
20101af6:	00f10613          	addi	a2,sp,15
20101afa:	4585                	li	a1,1
20101afc:	4521                	li	a0,8
20101afe:	33a5                	jal	20101866 <atk_ms901m_write_reg_by_id>
20101b00:	47a9                	li	a5,10
20101b02:	87dc                	sb	a5,15(sp)
20101b04:	00f10613          	addi	a2,sp,15
20101b08:	4585                	li	a1,1
20101b0a:	4529                	li	a0,10
20101b0c:	3ba9                	jal	20101866 <atk_ms901m_write_reg_by_id>
20101b0e:	03200513          	li	a0,50
20101b12:	77c010ef          	jal	ra,2010328e <Delay_Ms>
20101b16:	2201                	jal	20101c16 <atk_ms901m_uart_rx_fifo_flush>
20101b18:	85a2                	mv	a1,s0
20101b1a:	20106537          	lui	a0,0x20106
20101b1e:	ac850513          	addi	a0,a0,-1336 # 20105ac8 <_read+0x13e>
20101b22:	764020ef          	jal	ra,20104286 <iprintf>
20101b26:	4501                	li	a0,0
20101b28:	0141                	addi	sp,sp,16
20101b2a:	f7efe06f          	j	201002a8 <__riscv_restore_0>
20101b2e:	81d1c783          	lbu	a5,-2019(gp) # 201101fd <g_gyro_fsr_idx>
20101b32:	8b8d                	andi	a5,a5,3
20101b34:	83418713          	addi	a4,gp,-1996 # 20110214 <g_gyro_fsr_table>
20101b38:	20e7a7b3          	sh1add	a5,a5,a4
20101b3c:	238e                	lhu	a1,0(a5)
20101b3e:	20106537          	lui	a0,0x20106
20101b42:	a4450513          	addi	a0,a0,-1468 # 20105a44 <_read+0xba>
20101b46:	740020ef          	jal	ra,20104286 <iprintf>
20101b4a:	b779                	j	20101ad8 <atk_ms901m_init+0x2c>
20101b4c:	81c1c783          	lbu	a5,-2020(gp) # 201101fc <g_accel_fsr_idx>
20101b50:	8b8d                	andi	a5,a5,3
20101b52:	83018713          	addi	a4,gp,-2000 # 20110210 <g_accel_fsr_table>
20101b56:	97ba                	add	a5,a5,a4
20101b58:	238c                	lbu	a1,0(a5)
20101b5a:	20106537          	lui	a0,0x20106
20101b5e:	aa450513          	addi	a0,a0,-1372 # 20105aa4 <_read+0x11a>
20101b62:	724020ef          	jal	ra,20104286 <iprintf>
20101b66:	b771                	j	20101af2 <atk_ms901m_init+0x46>

20101b68 <atk_ms901m_uart_rx_fifo_write>:
20101b68:	4681                	li	a3,0
20101b6a:	a80d                	j	20101b9c <atk_ms901m_uart_rx_fifo_write+0x34>
20101b6c:	201107b7          	lui	a5,0x20110
20101b70:	27478793          	addi	a5,a5,628 # 20110274 <g_uart_rx_fifo>
20101b74:	1047d703          	lhu	a4,260(a5)
20101b78:	00d50633          	add	a2,a0,a3
20101b7c:	00064803          	lbu	a6,0(a2)
20101b80:	00e78633          	add	a2,a5,a4
20101b84:	01060023          	sb	a6,0(a2)
20101b88:	0705                	addi	a4,a4,1
20101b8a:	1007d603          	lhu	a2,256(a5)
20101b8e:	02c76733          	rem	a4,a4,a2
20101b92:	10e79223          	sh	a4,260(a5)
20101b96:	0685                	addi	a3,a3,1
20101b98:	0806c6b3          	zext.h	a3,a3
20101b9c:	fcb6e8e3          	bltu	a3,a1,20101b6c <atk_ms901m_uart_rx_fifo_write+0x4>
20101ba0:	4501                	li	a0,0
20101ba2:	8082                	ret

20101ba4 <atk_ms901m_uart_rx_fifo_read>:
20101ba4:	882a                	mv	a6,a0
20101ba6:	20110737          	lui	a4,0x20110
20101baa:	27470713          	addi	a4,a4,628 # 20110274 <g_uart_rx_fifo>
20101bae:	10475783          	lhu	a5,260(a4)
20101bb2:	10275683          	lhu	a3,258(a4)
20101bb6:	00d7ea63          	bltu	a5,a3,20101bca <atk_ms901m_uart_rx_fifo_read+0x26>
20101bba:	8f95                	sub	a5,a5,a3
20101bbc:	0807c533          	zext.h	a0,a5
20101bc0:	00b56363          	bltu	a0,a1,20101bc6 <atk_ms901m_uart_rx_fifo_read+0x22>
20101bc4:	852e                	mv	a0,a1
20101bc6:	4681                	li	a3,0
20101bc8:	a0a1                	j	20101c10 <atk_ms901m_uart_rx_fifo_read+0x6c>
20101bca:	20110737          	lui	a4,0x20110
20101bce:	27470713          	addi	a4,a4,628 # 20110274 <g_uart_rx_fifo>
20101bd2:	10075703          	lhu	a4,256(a4)
20101bd6:	8f15                	sub	a4,a4,a3
20101bd8:	08074733          	zext.h	a4,a4
20101bdc:	97ba                	add	a5,a5,a4
20101bde:	0807c533          	zext.h	a0,a5
20101be2:	bff9                	j	20101bc0 <atk_ms901m_uart_rx_fifo_read+0x1c>
20101be4:	201107b7          	lui	a5,0x20110
20101be8:	27478793          	addi	a5,a5,628 # 20110274 <g_uart_rx_fifo>
20101bec:	1027d703          	lhu	a4,258(a5)
20101bf0:	00d80633          	add	a2,a6,a3
20101bf4:	00e785b3          	add	a1,a5,a4
20101bf8:	218c                	lbu	a1,0(a1)
20101bfa:	a20c                	sb	a1,0(a2)
20101bfc:	0705                	addi	a4,a4,1
20101bfe:	1007d603          	lhu	a2,256(a5)
20101c02:	02c76733          	rem	a4,a4,a2
20101c06:	10e79123          	sh	a4,258(a5)
20101c0a:	0685                	addi	a3,a3,1
20101c0c:	0806c6b3          	zext.h	a3,a3
20101c10:	fca6eae3          	bltu	a3,a0,20101be4 <atk_ms901m_uart_rx_fifo_read+0x40>
20101c14:	8082                	ret

20101c16 <atk_ms901m_uart_rx_fifo_flush>:
20101c16:	201107b7          	lui	a5,0x20110
20101c1a:	27478793          	addi	a5,a5,628 # 20110274 <g_uart_rx_fifo>
20101c1e:	1027d703          	lhu	a4,258(a5)
20101c22:	10e79223          	sh	a4,260(a5)
20101c26:	8082                	ret

20101c28 <atk_ms901m_uart_send>:
20101c28:	e5cfe2ef          	jal	t0,20100284 <__riscv_save_0>
20101c2c:	892a                	mv	s2,a0
20101c2e:	84ae                	mv	s1,a1
20101c30:	4401                	li	s0,0
20101c32:	a025                	j	20101c5a <atk_ms901m_uart_send+0x32>
20101c34:	08000593          	li	a1,128
20101c38:	40005537          	lui	a0,0x40005
20101c3c:	80050513          	addi	a0,a0,-2048 # 40004800 <_eusrstack+0x1fe84800>
20101c40:	36d9                	jal	20101806 <USART_GetFlagStatus>
20101c42:	d96d                	beqz	a0,20101c34 <atk_ms901m_uart_send+0xc>
20101c44:	008907b3          	add	a5,s2,s0
20101c48:	238c                	lbu	a1,0(a5)
20101c4a:	40005537          	lui	a0,0x40005
20101c4e:	80050513          	addi	a0,a0,-2048 # 40004800 <_eusrstack+0x1fe84800>
20101c52:	3655                	jal	201017f6 <USART_SendData>
20101c54:	0405                	addi	s0,s0,1
20101c56:	0ff47413          	zext.b	s0,s0
20101c5a:	fc946de3          	bltu	s0,s1,20101c34 <atk_ms901m_uart_send+0xc>
20101c5e:	e4afe06f          	j	201002a8 <__riscv_restore_0>

20101c62 <atk_ms901m_uart_init>:
20101c62:	e22fe2ef          	jal	t0,20100284 <__riscv_save_0>
20101c66:	1101                	addi	sp,sp,-32
20101c68:	84aa                	mv	s1,a0
20101c6a:	ca02                	sw	zero,20(sp)
20101c6c:	cc02                	sw	zero,24(sp)
20101c6e:	ce02                	sw	zero,28(sp)
20101c70:	c202                	sw	zero,4(sp)
20101c72:	c402                	sw	zero,8(sp)
20101c74:	c602                	sw	zero,12(sp)
20101c76:	c802                	sw	zero,16(sp)
20101c78:	4585                	li	a1,1
20101c7a:	00040537          	lui	a0,0x40
20101c7e:	e4eff0ef          	jal	ra,201012cc <RCC_HB1PeriphClockCmd>
20101c82:	4585                	li	a1,1
20101c84:	4521                	li	a0,8
20101c86:	e2aff0ef          	jal	ra,201012b0 <RCC_HB2PeriphClockCmd>
20101c8a:	461d                	li	a2,7
20101c8c:	45a9                	li	a1,10
20101c8e:	40011437          	lui	s0,0x40011
20101c92:	c0040513          	addi	a0,s0,-1024 # 40010c00 <_eusrstack+0x1fe90c00>
20101c96:	c33fe0ef          	jal	ra,201008c8 <GPIO_PinAFConfig>
20101c9a:	40000793          	li	a5,1024
20101c9e:	82fc                	sh	a5,20(sp)
20101ca0:	478d                	li	a5,3
20101ca2:	cc3e                	sw	a5,24(sp)
20101ca4:	47e1                	li	a5,24
20101ca6:	ce3e                	sw	a5,28(sp)
20101ca8:	084c                	addi	a1,sp,20
20101caa:	c0040513          	addi	a0,s0,-1024
20101cae:	b09fe0ef          	jal	ra,201007b6 <GPIO_Init>
20101cb2:	461d                	li	a2,7
20101cb4:	45ad                	li	a1,11
20101cb6:	c0040513          	addi	a0,s0,-1024
20101cba:	c0ffe0ef          	jal	ra,201008c8 <GPIO_PinAFConfig>
20101cbe:	28b01793          	bseti	a5,zero,0xb
20101cc2:	82fc                	sh	a5,20(sp)
20101cc4:	4791                	li	a5,4
20101cc6:	ce3e                	sw	a5,28(sp)
20101cc8:	084c                	addi	a1,sp,20
20101cca:	c0040513          	addi	a0,s0,-1024
20101cce:	ae9fe0ef          	jal	ra,201007b6 <GPIO_Init>
20101cd2:	c226                	sw	s1,4(sp)
20101cd4:	00011423          	sh	zero,8(sp)
20101cd8:	00011523          	sh	zero,10(sp)
20101cdc:	00011623          	sh	zero,12(sp)
20101ce0:	00011823          	sh	zero,16(sp)
20101ce4:	47b1                	li	a5,12
20101ce6:	877c                	sh	a5,14(sp)
20101ce8:	004c                	addi	a1,sp,4
20101cea:	40005437          	lui	s0,0x40005
20101cee:	80040513          	addi	a0,s0,-2048 # 40004800 <_eusrstack+0x1fe84800>
20101cf2:	9ddff0ef          	jal	ra,201016ce <USART_Init>
20101cf6:	4585                	li	a1,1
20101cf8:	80040513          	addi	a0,s0,-2048
20101cfc:	3c51                	jal	20101790 <USART_Cmd>
20101cfe:	4605                	li	a2,1
20101d00:	52500593          	li	a1,1317
20101d04:	80040513          	addi	a0,s0,-2048
20101d08:	3445                	jal	201017a8 <USART_ITConfig>
20101d0a:	e000e7b7          	lui	a5,0xe000e
20101d0e:	00100737          	lui	a4,0x100
20101d12:	10e7a423          	sw	a4,264(a5) # e000e108 <_eusrstack+0xbfe8e108>
20101d16:	201107b7          	lui	a5,0x20110
20101d1a:	27478793          	addi	a5,a5,628 # 20110274 <g_uart_rx_fifo>
20101d1e:	10000713          	li	a4,256
20101d22:	10e79023          	sh	a4,256(a5)
20101d26:	10079123          	sh	zero,258(a5)
20101d2a:	10079223          	sh	zero,260(a5)
20101d2e:	6105                	addi	sp,sp,32
20101d30:	d78fe06f          	j	201002a8 <__riscv_restore_0>

20101d34 <ATK_MS901M_UART_IRQHandler>:
20101d34:	d50fe2ef          	jal	t0,20100284 <__riscv_save_0>
20101d38:	1141                	addi	sp,sp,-16
20101d3a:	45a1                	li	a1,8
20101d3c:	40005537          	lui	a0,0x40005
20101d40:	80050513          	addi	a0,a0,-2048 # 40004800 <_eusrstack+0x1fe84800>
20101d44:	34c9                	jal	20101806 <USART_GetFlagStatus>
20101d46:	c901                	beqz	a0,20101d56 <ATK_MS901M_UART_IRQHandler+0x22>
20101d48:	400057b7          	lui	a5,0x40005
20101d4c:	80078713          	addi	a4,a5,-2048 # 40004800 <_eusrstack+0x1fe84800>
20101d50:	8007d783          	lhu	a5,-2048(a5)
20101d54:	235e                	lhu	a5,4(a4)
20101d56:	02000593          	li	a1,32
20101d5a:	40005537          	lui	a0,0x40005
20101d5e:	80050513          	addi	a0,a0,-2048 # 40004800 <_eusrstack+0x1fe84800>
20101d62:	3455                	jal	20101806 <USART_GetFlagStatus>
20101d64:	e501                	bnez	a0,20101d6c <ATK_MS901M_UART_IRQHandler+0x38>
20101d66:	0141                	addi	sp,sp,16
20101d68:	d40fe06f          	j	201002a8 <__riscv_restore_0>
20101d6c:	40005537          	lui	a0,0x40005
20101d70:	80050513          	addi	a0,a0,-2048 # 40004800 <_eusrstack+0x1fe84800>
20101d74:	3469                	jal	201017fe <USART_ReceiveData>
20101d76:	87c8                	sb	a0,15(sp)
20101d78:	4585                	li	a1,1
20101d7a:	00f10513          	addi	a0,sp,15
20101d7e:	33ed                	jal	20101b68 <atk_ms901m_uart_rx_fifo_write>
20101d80:	b7dd                	j	20101d66 <ATK_MS901M_UART_IRQHandler+0x32>

20101d82 <bsp_esc_pwm_init>:
20101d82:	d02fe2ef          	jal	t0,20100284 <__riscv_save_0>
20101d86:	7179                	addi	sp,sp,-48
20101d88:	d202                	sw	zero,36(sp)
20101d8a:	d402                	sw	zero,40(sp)
20101d8c:	d602                	sw	zero,44(sp)
20101d8e:	cc02                	sw	zero,24(sp)
20101d90:	ce02                	sw	zero,28(sp)
20101d92:	02011023          	sh	zero,32(sp)
20101d96:	c402                	sw	zero,8(sp)
20101d98:	c602                	sw	zero,12(sp)
20101d9a:	c802                	sw	zero,16(sp)
20101d9c:	ca02                	sw	zero,20(sp)
20101d9e:	4585                	li	a1,1
20101da0:	6485                	lui	s1,0x1
20101da2:	80548513          	addi	a0,s1,-2043 # 805 <__stack_size+0x5>
20101da6:	d0aff0ef          	jal	ra,201012b0 <RCC_HB2PeriphClockCmd>
20101daa:	4605                	li	a2,1
20101dac:	45a1                	li	a1,8
20101dae:	40011437          	lui	s0,0x40011
20101db2:	80040513          	addi	a0,s0,-2048 # 40010800 <_eusrstack+0x1fe90800>
20101db6:	b13fe0ef          	jal	ra,201008c8 <GPIO_PinAFConfig>
20101dba:	4605                	li	a2,1
20101dbc:	45a5                	li	a1,9
20101dbe:	80040513          	addi	a0,s0,-2048
20101dc2:	b07fe0ef          	jal	ra,201008c8 <GPIO_PinAFConfig>
20101dc6:	4605                	li	a2,1
20101dc8:	45a9                	li	a1,10
20101dca:	80040513          	addi	a0,s0,-2048
20101dce:	afbfe0ef          	jal	ra,201008c8 <GPIO_PinAFConfig>
20101dd2:	4605                	li	a2,1
20101dd4:	45ad                	li	a1,11
20101dd6:	80040513          	addi	a0,s0,-2048
20101dda:	aeffe0ef          	jal	ra,201008c8 <GPIO_PinAFConfig>
20101dde:	f0048493          	addi	s1,s1,-256
20101de2:	02911223          	sh	s1,36(sp)
20101de6:	47e1                	li	a5,24
20101de8:	d63e                	sw	a5,44(sp)
20101dea:	478d                	li	a5,3
20101dec:	d43e                	sw	a5,40(sp)
20101dee:	104c                	addi	a1,sp,36
20101df0:	80040513          	addi	a0,s0,-2048
20101df4:	9c3fe0ef          	jal	ra,201007b6 <GPIO_Init>
20101df8:	6795                	lui	a5,0x5
20101dfa:	e1f78793          	addi	a5,a5,-481 # 4e1f <__stack_size+0x461f>
20101dfe:	86fc                	sh	a5,28(sp)
20101e00:	06300793          	li	a5,99
20101e04:	84fc                	sh	a5,24(sp)
20101e06:	00011f23          	sh	zero,30(sp)
20101e0a:	00011d23          	sh	zero,26(sp)
20101e0e:	082c                	addi	a1,sp,24
20101e10:	40013437          	lui	s0,0x40013
20101e14:	c0040513          	addi	a0,s0,-1024 # 40012c00 <_eusrstack+0x1fe92c00>
20101e18:	d56ff0ef          	jal	ra,2010136e <TIM_TimeBaseInit>
20101e1c:	06000793          	li	a5,96
20101e20:	847c                	sh	a5,8(sp)
20101e22:	4785                	li	a5,1
20101e24:	857c                	sh	a5,10(sp)
20101e26:	00011823          	sh	zero,16(sp)
20101e2a:	3e800793          	li	a5,1000
20101e2e:	877c                	sh	a5,14(sp)
20101e30:	002c                	addi	a1,sp,8
20101e32:	c0040513          	addi	a0,s0,-1024
20101e36:	dbaff0ef          	jal	ra,201013f0 <TIM_OC1Init>
20101e3a:	002c                	addi	a1,sp,8
20101e3c:	c0040513          	addi	a0,s0,-1024
20101e40:	e1eff0ef          	jal	ra,2010145e <TIM_OC2Init>
20101e44:	002c                	addi	a1,sp,8
20101e46:	c0040513          	addi	a0,s0,-1024
20101e4a:	eb6ff0ef          	jal	ra,20101500 <TIM_OC3Init>
20101e4e:	002c                	addi	a1,sp,8
20101e50:	c0040513          	addi	a0,s0,-1024
20101e54:	f4cff0ef          	jal	ra,201015a0 <TIM_OC4Init>
20101e58:	4585                	li	a1,1
20101e5a:	c0040513          	addi	a0,s0,-1024
20101e5e:	fd4ff0ef          	jal	ra,20101632 <TIM_CtrlPWMOutputs>
20101e62:	4581                	li	a1,0
20101e64:	c0040513          	addi	a0,s0,-1024
20101e68:	80dff0ef          	jal	ra,20101674 <TIM_OC1PreloadConfig>
20101e6c:	4581                	li	a1,0
20101e6e:	c0040513          	addi	a0,s0,-1024
20101e72:	811ff0ef          	jal	ra,20101682 <TIM_OC2PreloadConfig>
20101e76:	4581                	li	a1,0
20101e78:	c0040513          	addi	a0,s0,-1024
20101e7c:	81dff0ef          	jal	ra,20101698 <TIM_OC3PreloadConfig>
20101e80:	4581                	li	a1,0
20101e82:	c0040513          	addi	a0,s0,-1024
20101e86:	821ff0ef          	jal	ra,201016a6 <TIM_OC4PreloadConfig>
20101e8a:	4585                	li	a1,1
20101e8c:	c0040513          	addi	a0,s0,-1024
20101e90:	fc6ff0ef          	jal	ra,20101656 <TIM_ARRPreloadConfig>
20101e94:	4585                	li	a1,1
20101e96:	c0040513          	addi	a0,s0,-1024
20101e9a:	f7cff0ef          	jal	ra,20101616 <TIM_Cmd>
20101e9e:	6145                	addi	sp,sp,48
20101ea0:	c08fe06f          	j	201002a8 <__riscv_restore_0>

20101ea4 <bsp_esc_pwm_set_all>:
20101ea4:	bc6fe2ef          	jal	t0,2010026a <__riscv_save_4>
20101ea8:	89ae                	mv	s3,a1
20101eaa:	8932                	mv	s2,a2
20101eac:	84b6                	mv	s1,a3
20101eae:	82018793          	addi	a5,gp,-2016 # 20110200 <g_esc_pwm>
20101eb2:	a38a                	sh	a0,0(a5)
20101eb4:	a3ae                	sh	a1,2(a5)
20101eb6:	a3d2                	sh	a2,4(a5)
20101eb8:	a3f6                	sh	a3,6(a5)
20101eba:	85aa                	mv	a1,a0
20101ebc:	40013437          	lui	s0,0x40013
20101ec0:	c0040513          	addi	a0,s0,-1024 # 40012c00 <_eusrstack+0x1fe92c00>
20101ec4:	ff8ff0ef          	jal	ra,201016bc <TIM_SetCompare1>
20101ec8:	85ce                	mv	a1,s3
20101eca:	c0040513          	addi	a0,s0,-1024
20101ece:	ff2ff0ef          	jal	ra,201016c0 <TIM_SetCompare2>
20101ed2:	85ca                	mv	a1,s2
20101ed4:	c0040513          	addi	a0,s0,-1024
20101ed8:	fecff0ef          	jal	ra,201016c4 <TIM_SetCompare3>
20101edc:	85a6                	mv	a1,s1
20101ede:	c0040513          	addi	a0,s0,-1024
20101ee2:	fe6ff0ef          	jal	ra,201016c8 <TIM_SetCompare4>
20101ee6:	bb8fe06f          	j	2010029e <__riscv_restore_4>

20101eea <bsp_tof_tfmini_init>:
20101eea:	b9afe2ef          	jal	t0,20100284 <__riscv_save_0>
20101eee:	1101                	addi	sp,sp,-32
20101ef0:	ca02                	sw	zero,20(sp)
20101ef2:	cc02                	sw	zero,24(sp)
20101ef4:	ce02                	sw	zero,28(sp)
20101ef6:	c202                	sw	zero,4(sp)
20101ef8:	c402                	sw	zero,8(sp)
20101efa:	c602                	sw	zero,12(sp)
20101efc:	c802                	sw	zero,16(sp)
20101efe:	4585                	li	a1,1
20101f00:	04000513          	li	a0,64
20101f04:	bc8ff0ef          	jal	ra,201012cc <RCC_HB1PeriphClockCmd>
20101f08:	4585                	li	a1,1
20101f0a:	4545                	li	a0,17
20101f0c:	ba4ff0ef          	jal	ra,201012b0 <RCC_HB2PeriphClockCmd>
20101f10:	4621                	li	a2,8
20101f12:	45ad                	li	a1,11
20101f14:	40011537          	lui	a0,0x40011
20101f18:	9b1fe0ef          	jal	ra,201008c8 <GPIO_PinAFConfig>
20101f1c:	28b01793          	bseti	a5,zero,0xb
20101f20:	82fc                	sh	a5,20(sp)
20101f22:	4411                	li	s0,4
20101f24:	ce22                	sw	s0,28(sp)
20101f26:	084c                	addi	a1,sp,20
20101f28:	40011537          	lui	a0,0x40011
20101f2c:	88bfe0ef          	jal	ra,201007b6 <GPIO_Init>
20101f30:	67f1                	lui	a5,0x1c
20101f32:	20078793          	addi	a5,a5,512 # 1c200 <_data_lma+0x15e00>
20101f36:	c23e                	sw	a5,4(sp)
20101f38:	00011423          	sh	zero,8(sp)
20101f3c:	00011523          	sh	zero,10(sp)
20101f40:	00011623          	sh	zero,12(sp)
20101f44:	8760                	sh	s0,14(sp)
20101f46:	00011823          	sh	zero,16(sp)
20101f4a:	004c                	addi	a1,sp,4
20101f4c:	40002437          	lui	s0,0x40002
20101f50:	80040513          	addi	a0,s0,-2048 # 40001800 <_eusrstack+0x1fe81800>
20101f54:	f7aff0ef          	jal	ra,201016ce <USART_Init>
20101f58:	4605                	li	a2,1
20101f5a:	52500593          	li	a1,1317
20101f5e:	80040513          	addi	a0,s0,-2048
20101f62:	847ff0ef          	jal	ra,201017a8 <USART_ITConfig>
20101f66:	e000e7b7          	lui	a5,0xe000e
20101f6a:	4721                	li	a4,8
20101f6c:	10e7a623          	sw	a4,268(a5) # e000e10c <_eusrstack+0xbfe8e10c>
20101f70:	4585                	li	a1,1
20101f72:	80040513          	addi	a0,s0,-2048
20101f76:	81bff0ef          	jal	ra,20101790 <USART_Cmd>
20101f7a:	6105                	addi	sp,sp,32
20101f7c:	b2cfe06f          	j	201002a8 <__riscv_restore_0>

20101f80 <USART6_IRQHandler>:
20101f80:	52500593          	li	a1,1317
20101f84:	40002537          	lui	a0,0x40002
20101f88:	80050513          	addi	a0,a0,-2048 # 40001800 <_eusrstack+0x1fe81800>
20101f8c:	889ff0ef          	jal	ra,20101814 <USART_GetITStatus>
20101f90:	4785                	li	a5,1
20101f92:	00f50463          	beq	a0,a5,20101f9a <USART6_IRQHandler+0x1a>
20101f96:	30200073          	mret
20101f9a:	8641a783          	lw	a5,-1948(gp) # 20110244 <g_tof_irq_count>
20101f9e:	0785                	addi	a5,a5,1
20101fa0:	86f1a223          	sw	a5,-1948(gp) # 20110244 <g_tof_irq_count>
20101fa4:	40002537          	lui	a0,0x40002
20101fa8:	80050513          	addi	a0,a0,-2048 # 40001800 <_eusrstack+0x1fe81800>
20101fac:	853ff0ef          	jal	ra,201017fe <USART_ReceiveData>
20101fb0:	0ff57513          	zext.b	a0,a0
20101fb4:	84a18b23          	sb	a0,-1962(gp) # 20110236 <g_tof_last_rx_byte>
20101fb8:	8441c783          	lbu	a5,-1980(gp) # 20110224 <rx_sync>
20101fbc:	ef89                	bnez	a5,20101fd6 <USART6_IRQHandler+0x56>
20101fbe:	0bb00793          	li	a5,187
20101fc2:	fcf51ae3          	bne	a0,a5,20101f96 <USART6_IRQHandler+0x16>
20101fc6:	84a18423          	sb	a0,-1976(gp) # 20110228 <rx_buf>
20101fca:	4785                	li	a5,1
20101fcc:	84f182a3          	sb	a5,-1979(gp) # 20110225 <rx_idx>
20101fd0:	84f18223          	sb	a5,-1980(gp) # 20110224 <rx_sync>
20101fd4:	b7c9                	j	20101f96 <USART6_IRQHandler+0x16>
20101fd6:	8451c683          	lbu	a3,-1979(gp) # 20110225 <rx_idx>
20101fda:	00168713          	addi	a4,a3,1
20101fde:	0ff77713          	zext.b	a4,a4
20101fe2:	84e182a3          	sb	a4,-1979(gp) # 20110225 <rx_idx>
20101fe6:	84818793          	addi	a5,gp,-1976 # 20110228 <rx_buf>
20101fea:	97b6                	add	a5,a5,a3
20101fec:	a388                	sb	a0,0(a5)
20101fee:	4795                	li	a5,5
20101ff0:	fae7f3e3          	bgeu	a5,a4,20101f96 <USART6_IRQHandler+0x16>
20101ff4:	84018223          	sb	zero,-1980(gp) # 20110224 <rx_sync>
20101ff8:	4781                	li	a5,0
20101ffa:	4715                	li	a4,5
20101ffc:	00f76e63          	bltu	a4,a5,20102018 <USART6_IRQHandler+0x98>
20102000:	84818713          	addi	a4,gp,-1976 # 20110228 <rx_buf>
20102004:	973e                	add	a4,a4,a5
20102006:	2314                	lbu	a3,0(a4)
20102008:	85018713          	addi	a4,gp,-1968 # 20110230 <g_tof_last_frame>
2010200c:	973e                	add	a4,a4,a5
2010200e:	a314                	sb	a3,0(a4)
20102010:	0785                	addi	a5,a5,1
20102012:	0ff7f793          	zext.b	a5,a5
20102016:	b7d5                	j	20101ffa <USART6_IRQHandler+0x7a>
20102018:	84818793          	addi	a5,gp,-1976 # 20110228 <rx_buf>
2010201c:	3398                	lbu	a4,1(a5)
2010201e:	478d                	li	a5,3
20102020:	04f70063          	beq	a4,a5,20102060 <USART6_IRQHandler+0xe0>
20102024:	8581a783          	lw	a5,-1960(gp) # 20110238 <g_tof_len_error_count>
20102028:	0785                	addi	a5,a5,1
2010202a:	84f1ac23          	sw	a5,-1960(gp) # 20110238 <g_tof_len_error_count>
2010202e:	b7a5                	j	20101f96 <USART6_IRQHandler+0x16>
20102030:	84818713          	addi	a4,gp,-1976 # 20110228 <rx_buf>
20102034:	973e                	add	a4,a4,a5
20102036:	2318                	lbu	a4,0(a4)
20102038:	96ba                	add	a3,a3,a4
2010203a:	0ff6f693          	zext.b	a3,a3
2010203e:	0785                	addi	a5,a5,1
20102040:	0ff7f793          	zext.b	a5,a5
20102044:	4711                	li	a4,4
20102046:	fef775e3          	bgeu	a4,a5,20102030 <USART6_IRQHandler+0xb0>
2010204a:	84818793          	addi	a5,gp,-1976 # 20110228 <rx_buf>
2010204e:	33dc                	lbu	a5,5(a5)
20102050:	00d78b63          	beq	a5,a3,20102066 <USART6_IRQHandler+0xe6>
20102054:	85c1a783          	lw	a5,-1956(gp) # 2011023c <g_tof_crc_error_count>
20102058:	0785                	addi	a5,a5,1
2010205a:	84f1ae23          	sw	a5,-1956(gp) # 2011023c <g_tof_crc_error_count>
2010205e:	bf25                	j	20101f96 <USART6_IRQHandler+0x16>
20102060:	4781                	li	a5,0
20102062:	4681                	li	a3,0
20102064:	b7c5                	j	20102044 <USART6_IRQHandler+0xc4>
20102066:	84818713          	addi	a4,gp,-1976 # 20110228 <rx_buf>
2010206a:	2334                	lbu	a3,2(a4)
2010206c:	333c                	lbu	a5,3(a4)
2010206e:	07a2                	slli	a5,a5,0x8
20102070:	8edd                	or	a3,a3,a5
20102072:	86d19423          	sh	a3,-1944(gp) # 20110248 <g_tfmini_data>
20102076:	2358                	lbu	a4,4(a4)
20102078:	86818793          	addi	a5,gp,-1944 # 20110248 <g_tfmini_data>
2010207c:	a3b8                	sb	a4,2(a5)
2010207e:	4705                	li	a4,1
20102080:	b3b8                	sb	a4,3(a5)
20102082:	8601a783          	lw	a5,-1952(gp) # 20110240 <g_tof_frame_count>
20102086:	0785                	addi	a5,a5,1
20102088:	86f1a023          	sw	a5,-1952(gp) # 20110240 <g_tof_frame_count>
2010208c:	b729                	j	20101f96 <USART6_IRQHandler+0x16>

2010208e <i2c_start>:
2010208e:	9f6fe2ef          	jal	t0,20100284 <__riscv_save_0>
20102092:	000205b7          	lui	a1,0x20
20102096:	40006537          	lui	a0,0x40006
2010209a:	c0050513          	addi	a0,a0,-1024 # 40005c00 <_eusrstack+0x1fe85c00>
2010209e:	e99fe0ef          	jal	ra,20100f36 <I2C_GetFlagStatus>
201020a2:	f965                	bnez	a0,20102092 <i2c_start+0x4>
201020a4:	4585                	li	a1,1
201020a6:	40006537          	lui	a0,0x40006
201020aa:	c0050513          	addi	a0,a0,-1024 # 40005c00 <_eusrstack+0x1fe85c00>
201020ae:	e1bfe0ef          	jal	ra,20100ec8 <I2C_GenerateSTART>
201020b2:	000305b7          	lui	a1,0x30
201020b6:	0585                	addi	a1,a1,1 # 30001 <_data_lma+0x29c01>
201020b8:	40006537          	lui	a0,0x40006
201020bc:	c0050513          	addi	a0,a0,-1024 # 40005c00 <_eusrstack+0x1fe85c00>
201020c0:	e59fe0ef          	jal	ra,20100f18 <I2C_CheckEvent>
201020c4:	f57d                	bnez	a0,201020b2 <i2c_start+0x24>
201020c6:	9e2fe06f          	j	201002a8 <__riscv_restore_0>

201020ca <i2c_send_addr>:
201020ca:	9bafe2ef          	jal	t0,20100284 <__riscv_save_0>
201020ce:	842e                	mv	s0,a1
201020d0:	862e                	mv	a2,a1
201020d2:	85aa                	mv	a1,a0
201020d4:	40006537          	lui	a0,0x40006
201020d8:	c0050513          	addi	a0,a0,-1024 # 40005c00 <_eusrstack+0x1fe85c00>
201020dc:	e2dfe0ef          	jal	ra,20100f08 <I2C_Send7bitAddress>
201020e0:	ec01                	bnez	s0,201020f8 <i2c_send_addr+0x2e>
201020e2:	000705b7          	lui	a1,0x70
201020e6:	08258593          	addi	a1,a1,130 # 70082 <_data_lma+0x69c82>
201020ea:	40006537          	lui	a0,0x40006
201020ee:	c0050513          	addi	a0,a0,-1024 # 40005c00 <_eusrstack+0x1fe85c00>
201020f2:	e27fe0ef          	jal	ra,20100f18 <I2C_CheckEvent>
201020f6:	f575                	bnez	a0,201020e2 <i2c_send_addr+0x18>
201020f8:	9b0fe06f          	j	201002a8 <__riscv_restore_0>

201020fc <i2c_send_byte>:
201020fc:	988fe2ef          	jal	t0,20100284 <__riscv_save_0>
20102100:	85aa                	mv	a1,a0
20102102:	40006537          	lui	a0,0x40006
20102106:	c0050513          	addi	a0,a0,-1024 # 40005c00 <_eusrstack+0x1fe85c00>
2010210a:	dfbfe0ef          	jal	ra,20100f04 <I2C_SendData>
2010210e:	000705b7          	lui	a1,0x70
20102112:	08458593          	addi	a1,a1,132 # 70084 <_data_lma+0x69c84>
20102116:	40006537          	lui	a0,0x40006
2010211a:	c0050513          	addi	a0,a0,-1024 # 40005c00 <_eusrstack+0x1fe85c00>
2010211e:	dfbfe0ef          	jal	ra,20100f18 <I2C_CheckEvent>
20102122:	f575                	bnez	a0,2010210e <i2c_send_byte+0x12>
20102124:	984fe06f          	j	201002a8 <__riscv_restore_0>

20102128 <i2c_stop>:
20102128:	4585                	li	a1,1
2010212a:	40006537          	lui	a0,0x40006
2010212e:	c0050513          	addi	a0,a0,-1024 # 40005c00 <_eusrstack+0x1fe85c00>
20102132:	db5fe06f          	j	20100ee6 <I2C_GenerateSTOP>

20102136 <oled_write_cmd>:
20102136:	94efe2ef          	jal	t0,20100284 <__riscv_save_0>
2010213a:	842a                	mv	s0,a0
2010213c:	3f89                	jal	2010208e <i2c_start>
2010213e:	4581                	li	a1,0
20102140:	03c00513          	li	a0,60
20102144:	3759                	jal	201020ca <i2c_send_addr>
20102146:	4501                	li	a0,0
20102148:	3f55                	jal	201020fc <i2c_send_byte>
2010214a:	8522                	mv	a0,s0
2010214c:	3f45                	jal	201020fc <i2c_send_byte>
2010214e:	3fe9                	jal	20102128 <i2c_stop>
20102150:	958fe06f          	j	201002a8 <__riscv_restore_0>

20102154 <oled_init_sequence>:
20102154:	930fe2ef          	jal	t0,20100284 <__riscv_save_0>
20102158:	0ae00513          	li	a0,174
2010215c:	3fe9                	jal	20102136 <oled_write_cmd>
2010215e:	0d500513          	li	a0,213
20102162:	3fd1                	jal	20102136 <oled_write_cmd>
20102164:	08000513          	li	a0,128
20102168:	37f9                	jal	20102136 <oled_write_cmd>
2010216a:	0a800513          	li	a0,168
2010216e:	37e1                	jal	20102136 <oled_write_cmd>
20102170:	03f00513          	li	a0,63
20102174:	37c9                	jal	20102136 <oled_write_cmd>
20102176:	0d300513          	li	a0,211
2010217a:	3f75                	jal	20102136 <oled_write_cmd>
2010217c:	4501                	li	a0,0
2010217e:	3f65                	jal	20102136 <oled_write_cmd>
20102180:	04000513          	li	a0,64
20102184:	3f4d                	jal	20102136 <oled_write_cmd>
20102186:	08d00513          	li	a0,141
2010218a:	3775                	jal	20102136 <oled_write_cmd>
2010218c:	4551                	li	a0,20
2010218e:	3765                	jal	20102136 <oled_write_cmd>
20102190:	02000513          	li	a0,32
20102194:	374d                	jal	20102136 <oled_write_cmd>
20102196:	4501                	li	a0,0
20102198:	3f79                	jal	20102136 <oled_write_cmd>
2010219a:	0a100513          	li	a0,161
2010219e:	3f61                	jal	20102136 <oled_write_cmd>
201021a0:	0c800513          	li	a0,200
201021a4:	3f49                	jal	20102136 <oled_write_cmd>
201021a6:	0da00513          	li	a0,218
201021aa:	3771                	jal	20102136 <oled_write_cmd>
201021ac:	4549                	li	a0,18
201021ae:	3761                	jal	20102136 <oled_write_cmd>
201021b0:	08100513          	li	a0,129
201021b4:	3749                	jal	20102136 <oled_write_cmd>
201021b6:	0cf00513          	li	a0,207
201021ba:	3fb5                	jal	20102136 <oled_write_cmd>
201021bc:	0d900513          	li	a0,217
201021c0:	3f9d                	jal	20102136 <oled_write_cmd>
201021c2:	0f100513          	li	a0,241
201021c6:	3f85                	jal	20102136 <oled_write_cmd>
201021c8:	0db00513          	li	a0,219
201021cc:	37ad                	jal	20102136 <oled_write_cmd>
201021ce:	04000513          	li	a0,64
201021d2:	3795                	jal	20102136 <oled_write_cmd>
201021d4:	0a400513          	li	a0,164
201021d8:	3fb9                	jal	20102136 <oled_write_cmd>
201021da:	0a600513          	li	a0,166
201021de:	3fa1                	jal	20102136 <oled_write_cmd>
201021e0:	02e00513          	li	a0,46
201021e4:	3f89                	jal	20102136 <oled_write_cmd>
201021e6:	0af00513          	li	a0,175
201021ea:	37b1                	jal	20102136 <oled_write_cmd>
201021ec:	8bcfe06f          	j	201002a8 <__riscv_restore_0>

201021f0 <oled_write_data_burst>:
201021f0:	894fe2ef          	jal	t0,20100284 <__riscv_save_0>
201021f4:	892a                	mv	s2,a0
201021f6:	84ae                	mv	s1,a1
201021f8:	3d59                	jal	2010208e <i2c_start>
201021fa:	4581                	li	a1,0
201021fc:	03c00513          	li	a0,60
20102200:	35e9                	jal	201020ca <i2c_send_addr>
20102202:	04000513          	li	a0,64
20102206:	3ddd                	jal	201020fc <i2c_send_byte>
20102208:	4401                	li	s0,0
2010220a:	a801                	j	2010221a <oled_write_data_burst+0x2a>
2010220c:	008907b3          	add	a5,s2,s0
20102210:	2388                	lbu	a0,0(a5)
20102212:	35ed                	jal	201020fc <i2c_send_byte>
20102214:	0405                	addi	s0,s0,1
20102216:	08044433          	zext.h	s0,s0
2010221a:	fe9469e3          	bltu	s0,s1,2010220c <oled_write_data_burst+0x1c>
2010221e:	3729                	jal	20102128 <i2c_stop>
20102220:	888fe06f          	j	201002a8 <__riscv_restore_0>

20102224 <oled_clear>:
20102224:	40000613          	li	a2,1024
20102228:	4581                	li	a1,0
2010222a:	20110537          	lui	a0,0x20110
2010222e:	37c50513          	addi	a0,a0,892 # 2011037c <g_oled_fb>
20102232:	898fe06f          	j	201002ca <memset>

20102236 <oled_refresh>:
20102236:	84efe2ef          	jal	t0,20100284 <__riscv_save_0>
2010223a:	02100513          	li	a0,33
2010223e:	3de5                	jal	20102136 <oled_write_cmd>
20102240:	4501                	li	a0,0
20102242:	3dd5                	jal	20102136 <oled_write_cmd>
20102244:	07f00513          	li	a0,127
20102248:	35fd                	jal	20102136 <oled_write_cmd>
2010224a:	02200513          	li	a0,34
2010224e:	35e5                	jal	20102136 <oled_write_cmd>
20102250:	4501                	li	a0,0
20102252:	35d5                	jal	20102136 <oled_write_cmd>
20102254:	451d                	li	a0,7
20102256:	35c5                	jal	20102136 <oled_write_cmd>
20102258:	40000593          	li	a1,1024
2010225c:	20110537          	lui	a0,0x20110
20102260:	37c50513          	addi	a0,a0,892 # 2011037c <g_oled_fb>
20102264:	3771                	jal	201021f0 <oled_write_data_burst>
20102266:	842fe06f          	j	201002a8 <__riscv_restore_0>

2010226a <oled_init>:
2010226a:	81afe2ef          	jal	t0,20100284 <__riscv_save_0>
2010226e:	1101                	addi	sp,sp,-32
20102270:	ca02                	sw	zero,20(sp)
20102272:	cc02                	sw	zero,24(sp)
20102274:	ce02                	sw	zero,28(sp)
20102276:	c202                	sw	zero,4(sp)
20102278:	c402                	sw	zero,8(sp)
2010227a:	c602                	sw	zero,12(sp)
2010227c:	c802                	sw	zero,16(sp)
2010227e:	4585                	li	a1,1
20102280:	4515                	li	a0,5
20102282:	82eff0ef          	jal	ra,201012b0 <RCC_HB2PeriphClockCmd>
20102286:	4585                	li	a1,1
20102288:	40000537          	lui	a0,0x40000
2010228c:	840ff0ef          	jal	ra,201012cc <RCC_HB1PeriphClockCmd>
20102290:	461d                	li	a2,7
20102292:	45b9                	li	a1,14
20102294:	40011437          	lui	s0,0x40011
20102298:	80040513          	addi	a0,s0,-2048 # 40010800 <_eusrstack+0x1fe90800>
2010229c:	e2cfe0ef          	jal	ra,201008c8 <GPIO_PinAFConfig>
201022a0:	6491                	lui	s1,0x4
201022a2:	82e4                	sh	s1,20(sp)
201022a4:	478d                	li	a5,3
201022a6:	cc3e                	sw	a5,24(sp)
201022a8:	47f1                	li	a5,28
201022aa:	ce3e                	sw	a5,28(sp)
201022ac:	084c                	addi	a1,sp,20
201022ae:	80040513          	addi	a0,s0,-2048
201022b2:	d04fe0ef          	jal	ra,201007b6 <GPIO_Init>
201022b6:	461d                	li	a2,7
201022b8:	45b5                	li	a1,13
201022ba:	80040513          	addi	a0,s0,-2048
201022be:	e0afe0ef          	jal	ra,201008c8 <GPIO_PinAFConfig>
201022c2:	6789                	lui	a5,0x2
201022c4:	82fc                	sh	a5,20(sp)
201022c6:	084c                	addi	a1,sp,20
201022c8:	80040513          	addi	a0,s0,-2048
201022cc:	ceafe0ef          	jal	ra,201007b6 <GPIO_Init>
201022d0:	000627b7          	lui	a5,0x62
201022d4:	a8078793          	addi	a5,a5,-1408 # 61a80 <_data_lma+0x5b680>
201022d8:	c23e                	sw	a5,4(sp)
201022da:	00011423          	sh	zero,8(sp)
201022de:	77f1                	lui	a5,0xffffc
201022e0:	17fd                	addi	a5,a5,-1 # ffffbfff <_eusrstack+0xdfe7bfff>
201022e2:	857c                	sh	a5,10(sp)
201022e4:	00011623          	sh	zero,12(sp)
201022e8:	40000793          	li	a5,1024
201022ec:	877c                	sh	a5,14(sp)
201022ee:	80e4                	sh	s1,16(sp)
201022f0:	004c                	addi	a1,sp,4
201022f2:	40006437          	lui	s0,0x40006
201022f6:	c0040513          	addi	a0,s0,-1024 # 40005c00 <_eusrstack+0x1fe85c00>
201022fa:	aaffe0ef          	jal	ra,20100da8 <I2C_Init>
201022fe:	4585                	li	a1,1
20102300:	c0040513          	addi	a0,s0,-1024
20102304:	ba9fe0ef          	jal	ra,20100eac <I2C_Cmd>
20102308:	35b1                	jal	20102154 <oled_init_sequence>
2010230a:	3f29                	jal	20102224 <oled_clear>
2010230c:	372d                	jal	20102236 <oled_refresh>
2010230e:	6105                	addi	sp,sp,32
20102310:	f99fd06f          	j	201002a8 <__riscv_restore_0>

20102314 <oled_show_char>:
20102314:	07a00793          	li	a5,122
20102318:	0ca7e763          	bltu	a5,a0,201023e6 <oled_show_char+0xd2>
2010231c:	03800793          	li	a5,56
20102320:	0cb7e363          	bltu	a5,a1,201023e6 <oled_show_char+0xd2>
20102324:	fe060793          	addi	a5,a2,-32
20102328:	0ff7f793          	zext.b	a5,a5
2010232c:	05e00713          	li	a4,94
20102330:	00f77463          	bgeu	a4,a5,20102338 <oled_show_char+0x24>
20102334:	02000613          	li	a2,32
20102338:	0ff67813          	zext.b	a6,a2
2010233c:	1801                	addi	a6,a6,-32
2010233e:	0ff87813          	zext.b	a6,a6
20102342:	0035de13          	srli	t3,a1,0x3
20102346:	0075f313          	andi	t1,a1,7
2010234a:	4701                	li	a4,0
2010234c:	a8b9                	j	201023aa <oled_show_char+0x96>
2010234e:	201107b7          	lui	a5,0x20110
20102352:	37c78793          	addi	a5,a5,892 # 2011037c <g_oled_fb>
20102356:	97b6                	add	a5,a5,a3
20102358:	2390                	lbu	a2,0(a5)
2010235a:	4ea1                	li	t4,8
2010235c:	406e8eb3          	sub	t4,t4,t1
20102360:	0ff00f13          	li	t5,255
20102364:	41df5f33          	sra	t5,t5,t4
20102368:	01e67633          	and	a2,a2,t5
2010236c:	a390                	sb	a2,0(a5)
2010236e:	00689f33          	sll	t5,a7,t1
20102372:	01e66633          	or	a2,a2,t5
20102376:	a390                	sb	a2,0(a5)
20102378:	03700793          	li	a5,55
2010237c:	02b7e463          	bltu	a5,a1,201023a4 <oled_show_char+0x90>
20102380:	08068693          	addi	a3,a3,128
20102384:	201107b7          	lui	a5,0x20110
20102388:	37c78793          	addi	a5,a5,892 # 2011037c <g_oled_fb>
2010238c:	96be                	add	a3,a3,a5
2010238e:	2290                	lbu	a2,0(a3)
20102390:	0ff00793          	li	a5,255
20102394:	006797b3          	sll	a5,a5,t1
20102398:	8e7d                	and	a2,a2,a5
2010239a:	a290                	sb	a2,0(a3)
2010239c:	41d8d7b3          	sra	a5,a7,t4
201023a0:	8e5d                	or	a2,a2,a5
201023a2:	a290                	sb	a2,0(a3)
201023a4:	0705                	addi	a4,a4,1 # 100001 <_data_lma+0xf9c01>
201023a6:	0ff77713          	zext.b	a4,a4
201023aa:	4795                	li	a5,5
201023ac:	02e7ed63          	bltu	a5,a4,201023e6 <oled_show_char+0xd2>
201023b0:	007e1693          	slli	a3,t3,0x7
201023b4:	96aa                	add	a3,a3,a0
201023b6:	96ba                	add	a3,a3,a4
201023b8:	20106637          	lui	a2,0x20106
201023bc:	210827b3          	sh1add	a5,a6,a6
201023c0:	af060613          	addi	a2,a2,-1296 # 20105af0 <g_font_6x8>
201023c4:	20c7a7b3          	sh1add	a5,a5,a2
201023c8:	97ba                	add	a5,a5,a4
201023ca:	0007c883          	lbu	a7,0(a5)
201023ce:	f80310e3          	bnez	t1,2010234e <oled_show_char+0x3a>
201023d2:	201107b7          	lui	a5,0x20110
201023d6:	37c78793          	addi	a5,a5,892 # 2011037c <g_oled_fb>
201023da:	97b6                	add	a5,a5,a3
201023dc:	00078023          	sb	zero,0(a5)
201023e0:	01178023          	sb	a7,0(a5)
201023e4:	b7c1                	j	201023a4 <oled_show_char+0x90>
201023e6:	8082                	ret

201023e8 <oled_show_string>:
201023e8:	e83fd2ef          	jal	t0,2010026a <__riscv_save_4>
201023ec:	842a                	mv	s0,a0
201023ee:	84ae                	mv	s1,a1
201023f0:	8932                	mv	s2,a2
201023f2:	89b6                	mv	s3,a3
201023f4:	a031                	j	20102400 <oled_show_string+0x18>
201023f6:	03800793          	li	a5,56
201023fa:	0297e663          	bltu	a5,s1,20102426 <oled_show_string+0x3e>
201023fe:	0905                	addi	s2,s2,1
20102400:	00090603          	lb	a2,0(s2)
20102404:	c20d                	beqz	a2,20102426 <oled_show_string+0x3e>
20102406:	86ce                	mv	a3,s3
20102408:	85a6                	mv	a1,s1
2010240a:	8522                	mv	a0,s0
2010240c:	3721                	jal	20102314 <oled_show_char>
2010240e:	0419                	addi	s0,s0,6
20102410:	0ff47413          	zext.b	s0,s0
20102414:	07a00793          	li	a5,122
20102418:	fc87ffe3          	bgeu	a5,s0,201023f6 <oled_show_string+0xe>
2010241c:	04a1                	addi	s1,s1,8 # 4008 <__stack_size+0x3808>
2010241e:	0ff4f493          	zext.b	s1,s1
20102422:	4401                	li	s0,0
20102424:	bfc9                	j	201023f6 <oled_show_string+0xe>
20102426:	e79fd06f          	j	2010029e <__riscv_restore_4>

2010242a <spi3_transfer>:
2010242a:	e5bfd2ef          	jal	t0,20100284 <__riscv_save_0>
2010242e:	842a                	mv	s0,a0
20102430:	4589                	li	a1,2
20102432:	40004537          	lui	a0,0x40004
20102436:	c0050513          	addi	a0,a0,-1024 # 40003c00 <_eusrstack+0x1fe83c00>
2010243a:	f27fe0ef          	jal	ra,20101360 <SPI_I2S_GetFlagStatus>
2010243e:	d96d                	beqz	a0,20102430 <spi3_transfer+0x6>
20102440:	85a2                	mv	a1,s0
20102442:	40004537          	lui	a0,0x40004
20102446:	c0050513          	addi	a0,a0,-1024 # 40003c00 <_eusrstack+0x1fe83c00>
2010244a:	f0ffe0ef          	jal	ra,20101358 <SPI_I2S_SendData>
2010244e:	4585                	li	a1,1
20102450:	40004537          	lui	a0,0x40004
20102454:	c0050513          	addi	a0,a0,-1024 # 40003c00 <_eusrstack+0x1fe83c00>
20102458:	f09fe0ef          	jal	ra,20101360 <SPI_I2S_GetFlagStatus>
2010245c:	d96d                	beqz	a0,2010244e <spi3_transfer+0x24>
2010245e:	40004537          	lui	a0,0x40004
20102462:	c0050513          	addi	a0,a0,-1024 # 40003c00 <_eusrstack+0x1fe83c00>
20102466:	ef7fe0ef          	jal	ra,2010135c <SPI_I2S_ReceiveData>
2010246a:	0ff57513          	zext.b	a0,a0
2010246e:	e3bfd06f          	j	201002a8 <__riscv_restore_0>

20102472 <registerWrite>:
20102472:	e13fd2ef          	jal	t0,20100284 <__riscv_save_0>
20102476:	84aa                	mv	s1,a0
20102478:	842e                	mv	s0,a1
2010247a:	02000593          	li	a1,32
2010247e:	40011537          	lui	a0,0x40011
20102482:	c42fe0ef          	jal	ra,201008c4 <GPIO_ResetBits>
20102486:	0804e513          	ori	a0,s1,128
2010248a:	3745                	jal	2010242a <spi3_transfer>
2010248c:	8522                	mv	a0,s0
2010248e:	3f71                	jal	2010242a <spi3_transfer>
20102490:	02000593          	li	a1,32
20102494:	40011537          	lui	a0,0x40011
20102498:	c28fe0ef          	jal	ra,201008c0 <GPIO_SetBits>
2010249c:	e0dfd06f          	j	201002a8 <__riscv_restore_0>

201024a0 <InitRegisters>:
201024a0:	de5fd2ef          	jal	t0,20100284 <__riscv_save_0>
201024a4:	4581                	li	a1,0
201024a6:	07f00513          	li	a0,127
201024aa:	37e1                	jal	20102472 <registerWrite>
201024ac:	4585                	li	a1,1
201024ae:	05500513          	li	a0,85
201024b2:	37c1                	jal	20102472 <registerWrite>
201024b4:	459d                	li	a1,7
201024b6:	05000513          	li	a0,80
201024ba:	3f65                	jal	20102472 <registerWrite>
201024bc:	45b9                	li	a1,14
201024be:	07f00513          	li	a0,127
201024c2:	3f45                	jal	20102472 <registerWrite>
201024c4:	45c1                	li	a1,16
201024c6:	04300513          	li	a0,67
201024ca:	3765                	jal	20102472 <registerWrite>
201024cc:	4591                	li	a1,4
201024ce:	04800513          	li	a0,72
201024d2:	3745                	jal	20102472 <registerWrite>
201024d4:	45b5                	li	a1,13
201024d6:	07f00513          	li	a0,127
201024da:	3f61                	jal	20102472 <registerWrite>
201024dc:	45e1                	li	a1,24
201024de:	04800513          	li	a0,72
201024e2:	3f41                	jal	20102472 <registerWrite>
201024e4:	45d9                	li	a1,22
201024e6:	05200513          	li	a0,82
201024ea:	3761                	jal	20102472 <registerWrite>
201024ec:	45a9                	li	a1,10
201024ee:	07f00513          	li	a0,127
201024f2:	3741                	jal	20102472 <registerWrite>
201024f4:	03200593          	li	a1,50
201024f8:	05f00513          	li	a0,95
201024fc:	3f9d                	jal	20102472 <registerWrite>
201024fe:	09600593          	li	a1,150
20102502:	06100513          	li	a0,97
20102506:	37b5                	jal	20102472 <registerWrite>
20102508:	4581                	li	a1,0
2010250a:	07f00513          	li	a0,127
2010250e:	3795                	jal	20102472 <registerWrite>
20102510:	4589                	li	a1,2
20102512:	05500513          	li	a0,85
20102516:	3fb1                	jal	20102472 <registerWrite>
20102518:	4581                	li	a1,0
2010251a:	07f00513          	li	a0,127
2010251e:	3f91                	jal	20102472 <registerWrite>
20102520:	02000593          	li	a1,32
20102524:	06000513          	li	a0,96
20102528:	37a9                	jal	20102472 <registerWrite>
2010252a:	4581                	li	a1,0
2010252c:	06100513          	li	a0,97
20102530:	3789                	jal	20102472 <registerWrite>
20102532:	45d1                	li	a1,20
20102534:	07f00513          	li	a0,127
20102538:	3f2d                	jal	20102472 <registerWrite>
2010253a:	0b000593          	li	a1,176
2010253e:	04400513          	li	a0,68
20102542:	3f05                	jal	20102472 <registerWrite>
20102544:	4591                	li	a1,4
20102546:	05b00513          	li	a0,91
2010254a:	3725                	jal	20102472 <registerWrite>
2010254c:	04400593          	li	a1,68
20102550:	05f00513          	li	a0,95
20102554:	3f39                	jal	20102472 <registerWrite>
20102556:	4585                	li	a1,1
20102558:	06d00513          	li	a0,109
2010255c:	3f19                	jal	20102472 <registerWrite>
2010255e:	45d5                	li	a1,21
20102560:	07f00513          	li	a0,127
20102564:	3739                	jal	20102472 <registerWrite>
20102566:	4591                	li	a1,4
20102568:	04c00513          	li	a0,76
2010256c:	3719                	jal	20102472 <registerWrite>
2010256e:	4581                	li	a1,0
20102570:	07f00513          	li	a0,127
20102574:	3dfd                	jal	20102472 <registerWrite>
20102576:	08000593          	li	a1,128
2010257a:	04000513          	li	a0,64
2010257e:	3dd5                	jal	20102472 <registerWrite>
20102580:	d29fd06f          	j	201002a8 <__riscv_restore_0>

20102584 <registerRead>:
20102584:	d01fd2ef          	jal	t0,20100284 <__riscv_save_0>
20102588:	842a                	mv	s0,a0
2010258a:	02000593          	li	a1,32
2010258e:	40011537          	lui	a0,0x40011
20102592:	b32fe0ef          	jal	ra,201008c4 <GPIO_ResetBits>
20102596:	07f47513          	andi	a0,s0,127
2010259a:	3d41                	jal	2010242a <spi3_transfer>
2010259c:	4501                	li	a0,0
2010259e:	3571                	jal	2010242a <spi3_transfer>
201025a0:	842a                	mv	s0,a0
201025a2:	02000593          	li	a1,32
201025a6:	40011537          	lui	a0,0x40011
201025aa:	b16fe0ef          	jal	ra,201008c0 <GPIO_SetBits>
201025ae:	8522                	mv	a0,s0
201025b0:	cf9fd06f          	j	201002a8 <__riscv_restore_0>

201025b4 <sensor_flow_init>:
201025b4:	cb7fd2ef          	jal	t0,2010026a <__riscv_save_4>
201025b8:	1101                	addi	sp,sp,-32
201025ba:	ca02                	sw	zero,20(sp)
201025bc:	cc02                	sw	zero,24(sp)
201025be:	ce02                	sw	zero,28(sp)
201025c0:	c002                	sw	zero,0(sp)
201025c2:	c202                	sw	zero,4(sp)
201025c4:	c402                	sw	zero,8(sp)
201025c6:	c602                	sw	zero,12(sp)
201025c8:	00011823          	sh	zero,16(sp)
201025cc:	4585                	li	a1,1
201025ce:	4505                	li	a0,1
201025d0:	ce1fe0ef          	jal	ra,201012b0 <RCC_HB2PeriphClockCmd>
201025d4:	4585                	li	a1,1
201025d6:	4561                	li	a0,24
201025d8:	cd9fe0ef          	jal	ra,201012b0 <RCC_HB2PeriphClockCmd>
201025dc:	4585                	li	a1,1
201025de:	6521                	lui	a0,0x8
201025e0:	cedfe0ef          	jal	ra,201012cc <RCC_HB1PeriphClockCmd>
201025e4:	4619                	li	a2,6
201025e6:	458d                	li	a1,3
201025e8:	40011437          	lui	s0,0x40011
201025ec:	c0040513          	addi	a0,s0,-1024 # 40010c00 <_eusrstack+0x1fe90c00>
201025f0:	ad8fe0ef          	jal	ra,201008c8 <GPIO_PinAFConfig>
201025f4:	47a1                	li	a5,8
201025f6:	82fc                	sh	a5,20(sp)
201025f8:	4a61                	li	s4,24
201025fa:	ce52                	sw	s4,28(sp)
201025fc:	448d                	li	s1,3
201025fe:	cc26                	sw	s1,24(sp)
20102600:	084c                	addi	a1,sp,20
20102602:	c0040513          	addi	a0,s0,-1024
20102606:	9b0fe0ef          	jal	ra,201007b6 <GPIO_Init>
2010260a:	4619                	li	a2,6
2010260c:	4591                	li	a1,4
2010260e:	c0040513          	addi	a0,s0,-1024
20102612:	ab6fe0ef          	jal	ra,201008c8 <GPIO_PinAFConfig>
20102616:	4941                	li	s2,16
20102618:	01211a23          	sh	s2,20(sp)
2010261c:	4791                	li	a5,4
2010261e:	ce3e                	sw	a5,28(sp)
20102620:	084c                	addi	a1,sp,20
20102622:	c0040513          	addi	a0,s0,-1024
20102626:	990fe0ef          	jal	ra,201007b6 <GPIO_Init>
2010262a:	4619                	li	a2,6
2010262c:	4595                	li	a1,5
2010262e:	c0040513          	addi	a0,s0,-1024
20102632:	a96fe0ef          	jal	ra,201008c8 <GPIO_PinAFConfig>
20102636:	02000993          	li	s3,32
2010263a:	01311a23          	sh	s3,20(sp)
2010263e:	ce52                	sw	s4,28(sp)
20102640:	084c                	addi	a1,sp,20
20102642:	c0040513          	addi	a0,s0,-1024
20102646:	970fe0ef          	jal	ra,201007b6 <GPIO_Init>
2010264a:	01311a23          	sh	s3,20(sp)
2010264e:	ce4a                	sw	s2,28(sp)
20102650:	cc26                	sw	s1,24(sp)
20102652:	084c                	addi	a1,sp,20
20102654:	40011537          	lui	a0,0x40011
20102658:	95efe0ef          	jal	ra,201007b6 <GPIO_Init>
2010265c:	02000593          	li	a1,32
20102660:	40011537          	lui	a0,0x40011
20102664:	a5cfe0ef          	jal	ra,201008c0 <GPIO_SetBits>
20102668:	00011023          	sh	zero,0(sp)
2010266c:	10400793          	li	a5,260
20102670:	817c                	sh	a5,2(sp)
20102672:	00011223          	sh	zero,4(sp)
20102676:	4789                	li	a5,2
20102678:	837c                	sh	a5,6(sp)
2010267a:	4785                	li	a5,1
2010267c:	847c                	sh	a5,8(sp)
2010267e:	20000793          	li	a5,512
20102682:	857c                	sh	a5,10(sp)
20102684:	03000793          	li	a5,48
20102688:	867c                	sh	a5,12(sp)
2010268a:	00011723          	sh	zero,14(sp)
2010268e:	479d                	li	a5,7
20102690:	80fc                	sh	a5,16(sp)
20102692:	858a                	mv	a1,sp
20102694:	40004437          	lui	s0,0x40004
20102698:	c0040513          	addi	a0,s0,-1024 # 40003c00 <_eusrstack+0x1fe83c00>
2010269c:	c4dfe0ef          	jal	ra,201012e8 <SPI_Init>
201026a0:	4585                	li	a1,1
201026a2:	c0040513          	addi	a0,s0,-1024
201026a6:	c95fe0ef          	jal	ra,2010133a <SPI_Cmd>
201026aa:	02000593          	li	a1,32
201026ae:	40011537          	lui	a0,0x40011
201026b2:	a0efe0ef          	jal	ra,201008c0 <GPIO_SetBits>
201026b6:	03200513          	li	a0,50
201026ba:	3d5000ef          	jal	ra,2010328e <Delay_Ms>
201026be:	05a00593          	li	a1,90
201026c2:	03a00513          	li	a0,58
201026c6:	dadff0ef          	jal	ra,20102472 <registerWrite>
201026ca:	4515                	li	a0,5
201026cc:	3c3000ef          	jal	ra,2010328e <Delay_Ms>
201026d0:	dd1ff0ef          	jal	ra,201024a0 <InitRegisters>
201026d4:	4515                	li	a0,5
201026d6:	3b9000ef          	jal	ra,2010328e <Delay_Ms>
201026da:	4501                	li	a0,0
201026dc:	3565                	jal	20102584 <registerRead>
201026de:	842a                	mv	s0,a0
201026e0:	05f00513          	li	a0,95
201026e4:	3545                	jal	20102584 <registerRead>
201026e6:	84aa                	mv	s1,a0
201026e8:	862a                	mv	a2,a0
201026ea:	85a2                	mv	a1,s0
201026ec:	20106537          	lui	a0,0x20106
201026f0:	d2c50513          	addi	a0,a0,-724 # 20105d2c <g_font_6x8+0x23c>
201026f4:	393010ef          	jal	ra,20104286 <iprintf>
201026f8:	04900793          	li	a5,73
201026fc:	00f41663          	bne	s0,a5,20102708 <sensor_flow_init+0x154>
20102700:	0b600793          	li	a5,182
20102704:	00f48d63          	beq	s1,a5,2010271e <sensor_flow_init+0x16a>
20102708:	20106537          	lui	a0,0x20106
2010270c:	d8050513          	addi	a0,a0,-640 # 20105d80 <g_font_6x8+0x290>
20102710:	4b7010ef          	jal	ra,201043c6 <puts>
20102714:	86019623          	sh	zero,-1940(gp) # 2011024c <g_error_count>
20102718:	6105                	addi	sp,sp,32
2010271a:	b85fd06f          	j	2010029e <__riscv_restore_4>
2010271e:	20106537          	lui	a0,0x20106
20102722:	d6050513          	addi	a0,a0,-672 # 20105d60 <g_font_6x8+0x270>
20102726:	4a1010ef          	jal	ra,201043c6 <puts>
2010272a:	b7ed                	j	20102714 <sensor_flow_init+0x160>

2010272c <fifo_available>:
2010272c:	e7018793          	addi	a5,gp,-400 # 20110850 <g_gps_rx_fifo>
20102730:	4027d503          	lhu	a0,1026(a5)
20102734:	4007d783          	lhu	a5,1024(a5)
20102738:	00f57863          	bgeu	a0,a5,20102748 <fifo_available+0x1c>
2010273c:	8d1d                	sub	a0,a0,a5
2010273e:	40050513          	addi	a0,a0,1024
20102742:	08054533          	zext.h	a0,a0
20102746:	8082                	ret
20102748:	8d1d                	sub	a0,a0,a5
2010274a:	08054533          	zext.h	a0,a0
2010274e:	8082                	ret

20102750 <fifo_read>:
20102750:	e7018713          	addi	a4,gp,-400 # 20110850 <g_gps_rx_fifo>
20102754:	40075783          	lhu	a5,1024(a4)
20102758:	00f706b3          	add	a3,a4,a5
2010275c:	0785                	addi	a5,a5,1
2010275e:	3ff7f793          	andi	a5,a5,1023
20102762:	40f71023          	sh	a5,1024(a4)
20102766:	2288                	lbu	a0,0(a3)
20102768:	8082                	ret

2010276a <parse_int>:
2010276a:	86aa                	mv	a3,a0
2010276c:	00050703          	lb	a4,0(a0)
20102770:	02d00793          	li	a5,45
20102774:	00f70563          	beq	a4,a5,2010277e <parse_int+0x14>
20102778:	4581                	li	a1,0
2010277a:	4501                	li	a0,0
2010277c:	a821                	j	20102794 <parse_int+0x2a>
2010277e:	00150693          	addi	a3,a0,1
20102782:	4585                	li	a1,1
20102784:	bfdd                	j	2010277a <parse_int+0x10>
20102786:	20a54533          	sh2add	a0,a0,a0
2010278a:	fd078793          	addi	a5,a5,-48
2010278e:	20f52533          	sh1add	a0,a0,a5
20102792:	0685                	addi	a3,a3,1
20102794:	00068783          	lb	a5,0(a3)
20102798:	fd078713          	addi	a4,a5,-48
2010279c:	0ff77713          	zext.b	a4,a4
201027a0:	4625                	li	a2,9
201027a2:	fee672e3          	bgeu	a2,a4,20102786 <parse_int+0x1c>
201027a6:	c199                	beqz	a1,201027ac <parse_int+0x42>
201027a8:	40a00533          	neg	a0,a0
201027ac:	8082                	ret

201027ae <parse_decimal_scaled>:
201027ae:	00050703          	lb	a4,0(a0)
201027b2:	02d00793          	li	a5,45
201027b6:	00f70563          	beq	a4,a5,201027c0 <parse_decimal_scaled+0x12>
201027ba:	4301                	li	t1,0
201027bc:	4681                	li	a3,0
201027be:	a819                	j	201027d4 <parse_decimal_scaled+0x26>
201027c0:	0505                	addi	a0,a0,1
201027c2:	4305                	li	t1,1
201027c4:	bfe5                	j	201027bc <parse_decimal_scaled+0xe>
201027c6:	20d6c6b3          	sh2add	a3,a3,a3
201027ca:	fd078793          	addi	a5,a5,-48
201027ce:	20f6a6b3          	sh1add	a3,a3,a5
201027d2:	0505                	addi	a0,a0,1
201027d4:	00050783          	lb	a5,0(a0)
201027d8:	fd078713          	addi	a4,a5,-48
201027dc:	0ff77713          	zext.b	a4,a4
201027e0:	4625                	li	a2,9
201027e2:	fee672e3          	bgeu	a2,a4,201027c6 <parse_decimal_scaled+0x18>
201027e6:	02e00713          	li	a4,46
201027ea:	00e78563          	beq	a5,a4,201027f4 <parse_decimal_scaled+0x46>
201027ee:	4785                	li	a5,1
201027f0:	4701                	li	a4,0
201027f2:	a089                	j	20102834 <parse_decimal_scaled+0x86>
201027f4:	0505                	addi	a0,a0,1
201027f6:	4785                	li	a5,1
201027f8:	4701                	li	a4,0
201027fa:	a819                	j	20102810 <parse_decimal_scaled+0x62>
201027fc:	20e74733          	sh2add	a4,a4,a4
20102800:	fd060613          	addi	a2,a2,-48
20102804:	20c72733          	sh1add	a4,a4,a2
20102808:	20f7c7b3          	sh2add	a5,a5,a5
2010280c:	0786                	slli	a5,a5,0x1
2010280e:	0505                	addi	a0,a0,1
20102810:	00050603          	lb	a2,0(a0)
20102814:	fd060813          	addi	a6,a2,-48
20102818:	0ff87813          	zext.b	a6,a6
2010281c:	48a5                	li	a7,9
2010281e:	0108eb63          	bltu	a7,a6,20102834 <parse_decimal_scaled+0x86>
20102822:	fcb7cde3          	blt	a5,a1,201027fc <parse_decimal_scaled+0x4e>
20102826:	a039                	j	20102834 <parse_decimal_scaled+0x86>
20102828:	20e74733          	sh2add	a4,a4,a4
2010282c:	0706                	slli	a4,a4,0x1
2010282e:	20f7c7b3          	sh2add	a5,a5,a5
20102832:	0786                	slli	a5,a5,0x1
20102834:	feb7cae3          	blt	a5,a1,20102828 <parse_decimal_scaled+0x7a>
20102838:	02b68533          	mul	a0,a3,a1
2010283c:	953a                	add	a0,a0,a4
2010283e:	00030463          	beqz	t1,20102846 <parse_decimal_scaled+0x98>
20102842:	40a00533          	neg	a0,a0
20102846:	8082                	ret

20102848 <parse_latlon_deg_e7>:
20102848:	a3dfd2ef          	jal	t0,20100284 <__riscv_save_0>
2010284c:	84ae                	mv	s1,a1
2010284e:	65e1                	lui	a1,0x18
20102850:	6a058593          	addi	a1,a1,1696 # 186a0 <_data_lma+0x122a0>
20102854:	3fa9                	jal	201027ae <parse_decimal_scaled>
20102856:	009897b7          	lui	a5,0x989
2010285a:	68078793          	addi	a5,a5,1664 # 989680 <_data_lma+0x983280>
2010285e:	02f54433          	div	s0,a0,a5
20102862:	ff677737          	lui	a4,0xff677
20102866:	98070713          	addi	a4,a4,-1664 # ff676980 <_eusrstack+0xdf4f6980>
2010286a:	02e40433          	mul	s0,s0,a4
2010286e:	9522                	add	a0,a0,s0
20102870:	41f55713          	srai	a4,a0,0x1f
20102874:	02f70733          	mul	a4,a4,a5
20102878:	02f535b3          	mulhu	a1,a0,a5
2010287c:	005b9637          	lui	a2,0x5b9
20102880:	d8060613          	addi	a2,a2,-640 # 5b8d80 <_data_lma+0x5b2980>
20102884:	4681                	li	a3,0
20102886:	02f50533          	mul	a0,a0,a5
2010288a:	95ba                	add	a1,a1,a4
2010288c:	286010ef          	jal	ra,20103b12 <__divdi3>
20102890:	8d01                	sub	a0,a0,s0
20102892:	05300793          	li	a5,83
20102896:	00f48663          	beq	s1,a5,201028a2 <parse_latlon_deg_e7+0x5a>
2010289a:	05700793          	li	a5,87
2010289e:	00f49463          	bne	s1,a5,201028a6 <parse_latlon_deg_e7+0x5e>
201028a2:	40a00533          	neg	a0,a0
201028a6:	a03fd06f          	j	201002a8 <__riscv_restore_0>

201028aa <parse_utc_ms>:
201028aa:	9dbfd2ef          	jal	t0,20100284 <__riscv_save_0>
201028ae:	3e800593          	li	a1,1000
201028b2:	3df5                	jal	201027ae <parse_decimal_scaled>
201028b4:	009896b7          	lui	a3,0x989
201028b8:	68068693          	addi	a3,a3,1664 # 989680 <_data_lma+0x983280>
201028bc:	02d556b3          	divu	a3,a0,a3
201028c0:	67e1                	lui	a5,0x18
201028c2:	6a078793          	addi	a5,a5,1696 # 186a0 <_data_lma+0x122a0>
201028c6:	02f557b3          	divu	a5,a0,a5
201028ca:	06400713          	li	a4,100
201028ce:	02e7f7b3          	remu	a5,a5,a4
201028d2:	3e800613          	li	a2,1000
201028d6:	02c555b3          	divu	a1,a0,a2
201028da:	02e5f5b3          	remu	a1,a1,a4
201028de:	02c57533          	remu	a0,a0,a2
201028e2:	00469713          	slli	a4,a3,0x4
201028e6:	8f15                	sub	a4,a4,a3
201028e8:	20f74733          	sh2add	a4,a4,a5
201028ec:	00471793          	slli	a5,a4,0x4
201028f0:	8f99                	sub	a5,a5,a4
201028f2:	20b7c7b3          	sh2add	a5,a5,a1
201028f6:	02c787b3          	mul	a5,a5,a2
201028fa:	953e                	add	a0,a0,a5
201028fc:	9adfd06f          	j	201002a8 <__riscv_restore_0>

20102900 <hex_val>:
20102900:	0ff57793          	zext.b	a5,a0
20102904:	fd078513          	addi	a0,a5,-48
20102908:	0ff57513          	zext.b	a0,a0
2010290c:	4725                	li	a4,9
2010290e:	02a77263          	bgeu	a4,a0,20102932 <hex_val+0x32>
20102912:	fbf78713          	addi	a4,a5,-65
20102916:	0ff77713          	zext.b	a4,a4
2010291a:	4695                	li	a3,5
2010291c:	00e6fc63          	bgeu	a3,a4,20102934 <hex_val+0x34>
20102920:	f9f78713          	addi	a4,a5,-97
20102924:	0ff77713          	zext.b	a4,a4
20102928:	4695                	li	a3,5
2010292a:	00e6fa63          	bgeu	a3,a4,2010293e <hex_val+0x3e>
2010292e:	0ff00513          	li	a0,255
20102932:	8082                	ret
20102934:	fc978793          	addi	a5,a5,-55
20102938:	0ff7f513          	zext.b	a0,a5
2010293c:	8082                	ret
2010293e:	fa978793          	addi	a5,a5,-87
20102942:	0ff7f513          	zext.b	a0,a5
20102946:	8082                	ret

20102948 <nmea_checksum_ok>:
20102948:	00050703          	lb	a4,0(a0)
2010294c:	02400793          	li	a5,36
20102950:	06f71163          	bne	a4,a5,201029b2 <nmea_checksum_ok+0x6a>
20102954:	931fd2ef          	jal	t0,20100284 <__riscv_save_0>
20102958:	00150413          	addi	s0,a0,1
2010295c:	4481                	li	s1,0
2010295e:	a029                	j	20102968 <nmea_checksum_ok+0x20>
20102960:	0405                	addi	s0,s0,1
20102962:	0ff7f793          	zext.b	a5,a5
20102966:	8cbd                	xor	s1,s1,a5
20102968:	00040783          	lb	a5,0(s0)
2010296c:	c789                	beqz	a5,20102976 <nmea_checksum_ok+0x2e>
2010296e:	02a00713          	li	a4,42
20102972:	fee797e3          	bne	a5,a4,20102960 <nmea_checksum_ok+0x18>
20102976:	02a00713          	li	a4,42
2010297a:	02e79e63          	bne	a5,a4,201029b6 <nmea_checksum_ok+0x6e>
2010297e:	00140503          	lb	a0,1(s0)
20102982:	3fbd                	jal	20102900 <hex_val>
20102984:	892a                	mv	s2,a0
20102986:	47bd                	li	a5,15
20102988:	02a7ea63          	bltu	a5,a0,201029bc <nmea_checksum_ok+0x74>
2010298c:	00240503          	lb	a0,2(s0)
20102990:	3f85                	jal	20102900 <hex_val>
20102992:	47bd                	li	a5,15
20102994:	02a7e663          	bltu	a5,a0,201029c0 <nmea_checksum_ok+0x78>
20102998:	0912                	slli	s2,s2,0x4
2010299a:	60451793          	sext.b	a5,a0
2010299e:	0127e7b3          	or	a5,a5,s2
201029a2:	60479793          	sext.b	a5,a5
201029a6:	60449513          	sext.b	a0,s1
201029aa:	8d1d                	sub	a0,a0,a5
201029ac:	00153513          	seqz	a0,a0
201029b0:	a021                	j	201029b8 <nmea_checksum_ok+0x70>
201029b2:	4501                	li	a0,0
201029b4:	8082                	ret
201029b6:	4501                	li	a0,0
201029b8:	8f1fd06f          	j	201002a8 <__riscv_restore_0>
201029bc:	4501                	li	a0,0
201029be:	bfed                	j	201029b8 <nmea_checksum_ok+0x70>
201029c0:	4501                	li	a0,0
201029c2:	bfdd                	j	201029b8 <nmea_checksum_ok+0x70>

201029c4 <split_fields>:
201029c4:	87aa                	mv	a5,a0
201029c6:	00050683          	lb	a3,0(a0)
201029ca:	02400713          	li	a4,36
201029ce:	00e68563          	beq	a3,a4,201029d8 <split_fields+0x14>
201029d2:	c19c                	sw	a5,0(a1)
201029d4:	4505                	li	a0,1
201029d6:	a029                	j	201029e0 <split_fields+0x1c>
201029d8:	00150793          	addi	a5,a0,1
201029dc:	bfdd                	j	201029d2 <split_fields+0xe>
201029de:	0785                	addi	a5,a5,1
201029e0:	00078703          	lb	a4,0(a5)
201029e4:	c71d                	beqz	a4,20102a12 <split_fields+0x4e>
201029e6:	02a00693          	li	a3,42
201029ea:	02d70463          	beq	a4,a3,20102a12 <split_fields+0x4e>
201029ee:	02c57263          	bgeu	a0,a2,20102a12 <split_fields+0x4e>
201029f2:	02c00693          	li	a3,44
201029f6:	fed714e3          	bne	a4,a3,201029de <split_fields+0x1a>
201029fa:	00078023          	sb	zero,0(a5)
201029fe:	00150713          	addi	a4,a0,1
20102a02:	20b54533          	sh2add	a0,a0,a1
20102a06:	00178693          	addi	a3,a5,1
20102a0a:	c114                	sw	a3,0(a0)
20102a0c:	0ff77513          	zext.b	a0,a4
20102a10:	b7f9                	j	201029de <split_fields+0x1a>
20102a12:	02a00693          	li	a3,42
20102a16:	00d70363          	beq	a4,a3,20102a1c <split_fields+0x58>
20102a1a:	8082                	ret
20102a1c:	00078023          	sb	zero,0(a5)
20102a20:	bfed                	j	20102a1a <split_fields+0x56>

20102a22 <talker_supported>:
20102a22:	00050783          	lb	a5,0(a0)
20102a26:	04700713          	li	a4,71
20102a2a:	00e78c63          	beq	a5,a4,20102a42 <talker_supported+0x20>
20102a2e:	04200713          	li	a4,66
20102a32:	02e78e63          	beq	a5,a4,20102a6e <talker_supported+0x4c>
20102a36:	04700713          	li	a4,71
20102a3a:	04e78263          	beq	a5,a4,20102a7e <talker_supported+0x5c>
20102a3e:	4501                	li	a0,0
20102a40:	8082                	ret
20102a42:	00150703          	lb	a4,1(a0)
20102a46:	05000693          	li	a3,80
20102a4a:	04d70263          	beq	a4,a3,20102a8e <talker_supported+0x6c>
20102a4e:	fbf70713          	addi	a4,a4,-65
20102a52:	0ff77713          	zext.b	a4,a4
20102a56:	46c1                	li	a3,16
20102a58:	fce6ebe3          	bltu	a3,a4,20102a2e <talker_supported+0xc>
20102a5c:	66cd                	lui	a3,0x13
20102a5e:	80168693          	addi	a3,a3,-2047 # 12801 <_data_lma+0xc401>
20102a62:	00e6d733          	srl	a4,a3,a4
20102a66:	8b05                	andi	a4,a4,1
20102a68:	d379                	beqz	a4,20102a2e <talker_supported+0xc>
20102a6a:	4505                	li	a0,1
20102a6c:	8082                	ret
20102a6e:	00150683          	lb	a3,1(a0)
20102a72:	04400713          	li	a4,68
20102a76:	fce690e3          	bne	a3,a4,20102a36 <talker_supported+0x14>
20102a7a:	4505                	li	a0,1
20102a7c:	8082                	ret
20102a7e:	00150703          	lb	a4,1(a0)
20102a82:	04200793          	li	a5,66
20102a86:	00f70663          	beq	a4,a5,20102a92 <talker_supported+0x70>
20102a8a:	4501                	li	a0,0
20102a8c:	8082                	ret
20102a8e:	4505                	li	a0,1
20102a90:	8082                	ret
20102a92:	4505                	li	a0,1
20102a94:	8082                	ret

20102a96 <parse_gga>:
20102a96:	47a5                	li	a5,9
20102a98:	0cb7fa63          	bgeu	a5,a1,20102b6c <parse_gga+0xd6>
20102a9c:	fe8fd2ef          	jal	t0,20100284 <__riscv_save_0>
20102aa0:	842a                	mv	s0,a0
20102aa2:	84ae                	mv	s1,a1
20102aa4:	4148                	lw	a0,4(a0)
20102aa6:	00050783          	lb	a5,0(a0)
20102aaa:	ef95                	bnez	a5,20102ae6 <parse_gga+0x50>
20102aac:	4408                	lw	a0,8(s0)
20102aae:	00050783          	lb	a5,0(a0)
20102ab2:	cf89                	beqz	a5,20102acc <parse_gga+0x36>
20102ab4:	445c                	lw	a5,12(s0)
20102ab6:	00078583          	lb	a1,0(a5)
20102aba:	c989                	beqz	a1,20102acc <parse_gga+0x36>
20102abc:	481c                	lw	a5,16(s0)
20102abe:	00078783          	lb	a5,0(a5)
20102ac2:	c789                	beqz	a5,20102acc <parse_gga+0x36>
20102ac4:	485c                	lw	a5,20(s0)
20102ac6:	00078783          	lb	a5,0(a5)
20102aca:	e785                	bnez	a5,20102af2 <parse_gga+0x5c>
20102acc:	4c08                	lw	a0,24(s0)
20102ace:	c9dff0ef          	jal	ra,2010276a <parse_int>
20102ad2:	0ff57513          	zext.b	a0,a0
20102ad6:	e1c18793          	addi	a5,gp,-484 # 201107fc <g_gps_data>
20102ada:	bb88                	sb	a0,17(a5)
20102adc:	e915                	bnez	a0,20102b10 <parse_gga+0x7a>
20102ade:	e1c18793          	addi	a5,gp,-484 # 201107fc <g_gps_data>
20102ae2:	2b9c                	lbu	a5,16(a5)
20102ae4:	a03d                	j	20102b12 <parse_gga+0x7c>
20102ae6:	dc5ff0ef          	jal	ra,201028aa <parse_utc_ms>
20102aea:	e1c18793          	addi	a5,gp,-484 # 201107fc <g_gps_data>
20102aee:	df88                	sw	a0,56(a5)
20102af0:	bf75                	j	20102aac <parse_gga+0x16>
20102af2:	d57ff0ef          	jal	ra,20102848 <parse_latlon_deg_e7>
20102af6:	e1c18913          	addi	s2,gp,-484 # 201107fc <g_gps_data>
20102afa:	00a92c23          	sw	a0,24(s2)
20102afe:	485c                	lw	a5,20(s0)
20102b00:	00078583          	lb	a1,0(a5)
20102b04:	4808                	lw	a0,16(s0)
20102b06:	d43ff0ef          	jal	ra,20102848 <parse_latlon_deg_e7>
20102b0a:	00a92e23          	sw	a0,28(s2)
20102b0e:	bf7d                	j	20102acc <parse_gga+0x36>
20102b10:	4785                	li	a5,1
20102b12:	e1c18913          	addi	s2,gp,-484 # 201107fc <g_gps_data>
20102b16:	00f90823          	sb	a5,16(s2)
20102b1a:	4c48                	lw	a0,28(s0)
20102b1c:	c4fff0ef          	jal	ra,2010276a <parse_int>
20102b20:	00a909a3          	sb	a0,19(s2)
20102b24:	06400593          	li	a1,100
20102b28:	5008                	lw	a0,32(s0)
20102b2a:	c85ff0ef          	jal	ra,201027ae <parse_decimal_scaled>
20102b2e:	02a91423          	sh	a0,40(s2)
20102b32:	3e800593          	li	a1,1000
20102b36:	5048                	lw	a0,36(s0)
20102b38:	c77ff0ef          	jal	ra,201027ae <parse_decimal_scaled>
20102b3c:	02a92023          	sw	a0,32(s2)
20102b40:	47ad                	li	a5,11
20102b42:	0097f663          	bgeu	a5,s1,20102b4e <parse_gga+0xb8>
20102b46:	5448                	lw	a0,44(s0)
20102b48:	00050783          	lb	a5,0(a0)
20102b4c:	eb81                	bnez	a5,20102b5c <parse_gga+0xc6>
20102b4e:	e1c18793          	addi	a5,gp,-484 # 201107fc <g_gps_data>
20102b52:	4705                	li	a4,1
20102b54:	04e78923          	sb	a4,82(a5)
20102b58:	f50fd06f          	j	201002a8 <__riscv_restore_0>
20102b5c:	3e800593          	li	a1,1000
20102b60:	c4fff0ef          	jal	ra,201027ae <parse_decimal_scaled>
20102b64:	e1c18793          	addi	a5,gp,-484 # 201107fc <g_gps_data>
20102b68:	d3c8                	sw	a0,36(a5)
20102b6a:	b7d5                	j	20102b4e <parse_gga+0xb8>
20102b6c:	8082                	ret

20102b6e <parse_rmc>:
20102b6e:	47a5                	li	a5,9
20102b70:	0eb7f063          	bgeu	a5,a1,20102c50 <parse_rmc+0xe2>
20102b74:	f10fd2ef          	jal	t0,20100284 <__riscv_save_0>
20102b78:	842a                	mv	s0,a0
20102b7a:	4148                	lw	a0,4(a0)
20102b7c:	00050783          	lb	a5,0(a0)
20102b80:	efb1                	bnez	a5,20102bdc <parse_rmc+0x6e>
20102b82:	441c                	lw	a5,8(s0)
20102b84:	00078783          	lb	a5,0(a5)
20102b88:	fbf78793          	addi	a5,a5,-65
20102b8c:	0017b793          	seqz	a5,a5
20102b90:	e1c18713          	addi	a4,gp,-484 # 201107fc <g_gps_data>
20102b94:	ab1c                	sb	a5,16(a4)
20102b96:	4448                	lw	a0,12(s0)
20102b98:	00050783          	lb	a5,0(a0)
20102b9c:	cf89                	beqz	a5,20102bb6 <parse_rmc+0x48>
20102b9e:	481c                	lw	a5,16(s0)
20102ba0:	00078583          	lb	a1,0(a5)
20102ba4:	c989                	beqz	a1,20102bb6 <parse_rmc+0x48>
20102ba6:	485c                	lw	a5,20(s0)
20102ba8:	00078783          	lb	a5,0(a5)
20102bac:	c789                	beqz	a5,20102bb6 <parse_rmc+0x48>
20102bae:	4c1c                	lw	a5,24(s0)
20102bb0:	00078783          	lb	a5,0(a5)
20102bb4:	eb95                	bnez	a5,20102be8 <parse_rmc+0x7a>
20102bb6:	4c48                	lw	a0,28(s0)
20102bb8:	00050783          	lb	a5,0(a0)
20102bbc:	e3b9                	bnez	a5,20102c02 <parse_rmc+0x94>
20102bbe:	5008                	lw	a0,32(s0)
20102bc0:	00050783          	lb	a5,0(a0)
20102bc4:	e7ad                	bnez	a5,20102c2e <parse_rmc+0xc0>
20102bc6:	5048                	lw	a0,36(s0)
20102bc8:	00050783          	lb	a5,0(a0)
20102bcc:	efa5                	bnez	a5,20102c44 <parse_rmc+0xd6>
20102bce:	e1c18793          	addi	a5,gp,-484 # 201107fc <g_gps_data>
20102bd2:	4705                	li	a4,1
20102bd4:	04e78923          	sb	a4,82(a5)
20102bd8:	ed0fd06f          	j	201002a8 <__riscv_restore_0>
20102bdc:	ccfff0ef          	jal	ra,201028aa <parse_utc_ms>
20102be0:	e1c18793          	addi	a5,gp,-484 # 201107fc <g_gps_data>
20102be4:	df88                	sw	a0,56(a5)
20102be6:	bf71                	j	20102b82 <parse_rmc+0x14>
20102be8:	c61ff0ef          	jal	ra,20102848 <parse_latlon_deg_e7>
20102bec:	e1c18493          	addi	s1,gp,-484 # 201107fc <g_gps_data>
20102bf0:	cc88                	sw	a0,24(s1)
20102bf2:	4c1c                	lw	a5,24(s0)
20102bf4:	00078583          	lb	a1,0(a5)
20102bf8:	4848                	lw	a0,20(s0)
20102bfa:	c4fff0ef          	jal	ra,20102848 <parse_latlon_deg_e7>
20102bfe:	ccc8                	sw	a0,28(s1)
20102c00:	bf5d                	j	20102bb6 <parse_rmc+0x48>
20102c02:	3e800593          	li	a1,1000
20102c06:	ba9ff0ef          	jal	ra,201027ae <parse_decimal_scaled>
20102c0a:	67b5                	lui	a5,0xd
20102c0c:	8f478793          	addi	a5,a5,-1804 # c8f4 <_data_lma+0x64f4>
20102c10:	02f535b3          	mulhu	a1,a0,a5
20102c14:	000f4637          	lui	a2,0xf4
20102c18:	24060613          	addi	a2,a2,576 # f4240 <_data_lma+0xede40>
20102c1c:	4681                	li	a3,0
20102c1e:	02f50533          	mul	a0,a0,a5
20102c22:	2ca010ef          	jal	ra,20103eec <__udivdi3>
20102c26:	e1c18793          	addi	a5,gp,-484 # 201107fc <g_gps_data>
20102c2a:	db88                	sw	a0,48(a5)
20102c2c:	bf49                	j	20102bbe <parse_rmc+0x50>
20102c2e:	06400593          	li	a1,100
20102c32:	b7dff0ef          	jal	ra,201027ae <parse_decimal_scaled>
20102c36:	e1c18793          	addi	a5,gp,-484 # 201107fc <g_gps_data>
20102c3a:	bbca                	sh	a0,52(a5)
20102c3c:	4705                	li	a4,1
20102c3e:	02e78b23          	sb	a4,54(a5)
20102c42:	b751                	j	20102bc6 <parse_rmc+0x58>
20102c44:	b27ff0ef          	jal	ra,2010276a <parse_int>
20102c48:	e1c18793          	addi	a5,gp,-484 # 201107fc <g_gps_data>
20102c4c:	dfc8                	sw	a0,60(a5)
20102c4e:	b741                	j	20102bce <parse_rmc+0x60>
20102c50:	8082                	ret

20102c52 <parse_vtg>:
20102c52:	47a1                	li	a5,8
20102c54:	06b7f563          	bgeu	a5,a1,20102cbe <parse_vtg+0x6c>
20102c58:	e2cfd2ef          	jal	t0,20100284 <__riscv_save_0>
20102c5c:	842a                	mv	s0,a0
20102c5e:	4148                	lw	a0,4(a0)
20102c60:	00050783          	lb	a5,0(a0)
20102c64:	ef81                	bnez	a5,20102c7c <parse_vtg+0x2a>
20102c66:	4c48                	lw	a0,28(s0)
20102c68:	00050783          	lb	a5,0(a0)
20102c6c:	e39d                	bnez	a5,20102c92 <parse_vtg+0x40>
20102c6e:	e1c18793          	addi	a5,gp,-484 # 201107fc <g_gps_data>
20102c72:	4705                	li	a4,1
20102c74:	04e78923          	sb	a4,82(a5)
20102c78:	e30fd06f          	j	201002a8 <__riscv_restore_0>
20102c7c:	06400593          	li	a1,100
20102c80:	b2fff0ef          	jal	ra,201027ae <parse_decimal_scaled>
20102c84:	e1c18793          	addi	a5,gp,-484 # 201107fc <g_gps_data>
20102c88:	bbca                	sh	a0,52(a5)
20102c8a:	4705                	li	a4,1
20102c8c:	02e78b23          	sb	a4,54(a5)
20102c90:	bfd9                	j	20102c66 <parse_vtg+0x14>
20102c92:	3e800593          	li	a1,1000
20102c96:	b19ff0ef          	jal	ra,201027ae <parse_decimal_scaled>
20102c9a:	67e1                	lui	a5,0x18
20102c9c:	6a078793          	addi	a5,a5,1696 # 186a0 <_data_lma+0x122a0>
20102ca0:	02f535b3          	mulhu	a1,a0,a5
20102ca4:	0036f637          	lui	a2,0x36f
20102ca8:	e8060613          	addi	a2,a2,-384 # 36ee80 <_data_lma+0x368a80>
20102cac:	4681                	li	a3,0
20102cae:	02f50533          	mul	a0,a0,a5
20102cb2:	23a010ef          	jal	ra,20103eec <__udivdi3>
20102cb6:	e1c18793          	addi	a5,gp,-484 # 201107fc <g_gps_data>
20102cba:	db88                	sw	a0,48(a5)
20102cbc:	bf4d                	j	20102c6e <parse_vtg+0x1c>
20102cbe:	8082                	ret

20102cc0 <parse_gsa>:
20102cc0:	47c5                	li	a5,17
20102cc2:	00b7e363          	bltu	a5,a1,20102cc8 <parse_gsa+0x8>
20102cc6:	8082                	ret
20102cc8:	dbcfd2ef          	jal	t0,20100284 <__riscv_save_0>
20102ccc:	842a                	mv	s0,a0
20102cce:	4508                	lw	a0,8(a0)
20102cd0:	a9bff0ef          	jal	ra,2010276a <parse_int>
20102cd4:	e1c18493          	addi	s1,gp,-484 # 201107fc <g_gps_data>
20102cd8:	a8a8                	sb	a0,18(s1)
20102cda:	06400593          	li	a1,100
20102cde:	5c48                	lw	a0,60(s0)
20102ce0:	acfff0ef          	jal	ra,201027ae <parse_decimal_scaled>
20102ce4:	b4aa                	sh	a0,42(s1)
20102ce6:	06400593          	li	a1,100
20102cea:	4028                	lw	a0,64(s0)
20102cec:	ac3ff0ef          	jal	ra,201027ae <parse_decimal_scaled>
20102cf0:	b48a                	sh	a0,40(s1)
20102cf2:	06400593          	li	a1,100
20102cf6:	4068                	lw	a0,68(s0)
20102cf8:	ab7ff0ef          	jal	ra,201027ae <parse_decimal_scaled>
20102cfc:	b4ca                	sh	a0,44(s1)
20102cfe:	4785                	li	a5,1
20102d00:	04f48923          	sb	a5,82(s1)
20102d04:	da4fd06f          	j	201002a8 <__riscv_restore_0>

20102d08 <parse_gsv>:
20102d08:	478d                	li	a5,3
20102d0a:	00b7e363          	bltu	a5,a1,20102d10 <parse_gsv+0x8>
20102d0e:	8082                	ret
20102d10:	d74fd2ef          	jal	t0,20100284 <__riscv_save_0>
20102d14:	4548                	lw	a0,12(a0)
20102d16:	a55ff0ef          	jal	ra,2010276a <parse_int>
20102d1a:	e1c18793          	addi	a5,gp,-484 # 201107fc <g_gps_data>
20102d1e:	abc8                	sb	a0,20(a5)
20102d20:	4705                	li	a4,1
20102d22:	04e78923          	sb	a4,82(a5)
20102d26:	d82fd06f          	j	201002a8 <__riscv_restore_0>

20102d2a <parse_gll>:
20102d2a:	4799                	li	a5,6
20102d2c:	06b7fb63          	bgeu	a5,a1,20102da2 <parse_gll+0x78>
20102d30:	d54fd2ef          	jal	t0,20100284 <__riscv_save_0>
20102d34:	842a                	mv	s0,a0
20102d36:	4148                	lw	a0,4(a0)
20102d38:	00050783          	lb	a5,0(a0)
20102d3c:	cf89                	beqz	a5,20102d56 <parse_gll+0x2c>
20102d3e:	441c                	lw	a5,8(s0)
20102d40:	00078583          	lb	a1,0(a5)
20102d44:	c989                	beqz	a1,20102d56 <parse_gll+0x2c>
20102d46:	445c                	lw	a5,12(s0)
20102d48:	00078783          	lb	a5,0(a5)
20102d4c:	c789                	beqz	a5,20102d56 <parse_gll+0x2c>
20102d4e:	481c                	lw	a5,16(s0)
20102d50:	00078783          	lb	a5,0(a5)
20102d54:	e785                	bnez	a5,20102d7c <parse_gll+0x52>
20102d56:	4848                	lw	a0,20(s0)
20102d58:	00050783          	lb	a5,0(a0)
20102d5c:	ef8d                	bnez	a5,20102d96 <parse_gll+0x6c>
20102d5e:	4c1c                	lw	a5,24(s0)
20102d60:	00078783          	lb	a5,0(a5)
20102d64:	fbf78793          	addi	a5,a5,-65
20102d68:	0017b793          	seqz	a5,a5
20102d6c:	e1c18713          	addi	a4,gp,-484 # 201107fc <g_gps_data>
20102d70:	ab1c                	sb	a5,16(a4)
20102d72:	4785                	li	a5,1
20102d74:	04f70923          	sb	a5,82(a4)
20102d78:	d30fd06f          	j	201002a8 <__riscv_restore_0>
20102d7c:	acdff0ef          	jal	ra,20102848 <parse_latlon_deg_e7>
20102d80:	e1c18493          	addi	s1,gp,-484 # 201107fc <g_gps_data>
20102d84:	cc88                	sw	a0,24(s1)
20102d86:	481c                	lw	a5,16(s0)
20102d88:	00078583          	lb	a1,0(a5)
20102d8c:	4448                	lw	a0,12(s0)
20102d8e:	abbff0ef          	jal	ra,20102848 <parse_latlon_deg_e7>
20102d92:	ccc8                	sw	a0,28(s1)
20102d94:	b7c9                	j	20102d56 <parse_gll+0x2c>
20102d96:	b15ff0ef          	jal	ra,201028aa <parse_utc_ms>
20102d9a:	e1c18793          	addi	a5,gp,-484 # 201107fc <g_gps_data>
20102d9e:	df88                	sw	a0,56(a5)
20102da0:	bf7d                	j	20102d5e <parse_gll+0x34>
20102da2:	8082                	ret

20102da4 <copy_field>:
20102da4:	ce0fd2ef          	jal	t0,20100284 <__riscv_save_0>
20102da8:	84aa                	mv	s1,a0
20102daa:	87ae                	mv	a5,a1
20102dac:	85b2                	mv	a1,a2
20102dae:	17fd                	addi	a5,a5,-1
20102db0:	0af6c6b3          	min	a3,a3,a5
20102db4:	0ff6f413          	zext.b	s0,a3
20102db8:	8622                	mv	a2,s0
20102dba:	cfafd0ef          	jal	ra,201002b4 <memcpy>
20102dbe:	94a2                	add	s1,s1,s0
20102dc0:	00048023          	sb	zero,0(s1)
20102dc4:	ce4fd06f          	j	201002a8 <__riscv_restore_0>

20102dc8 <parse_nmea_line>:
20102dc8:	cbcfd2ef          	jal	t0,20100284 <__riscv_save_0>
20102dcc:	7175                	addi	sp,sp,-144
20102dce:	842a                	mv	s0,a0
20102dd0:	e1c18793          	addi	a5,gp,-484 # 201107fc <g_gps_data>
20102dd4:	43b8                	lw	a4,64(a5)
20102dd6:	0705                	addi	a4,a4,1
20102dd8:	c3b8                	sw	a4,64(a5)
20102dda:	b6fff0ef          	jal	ra,20102948 <nmea_checksum_ok>
20102dde:	e909                	bnez	a0,20102df0 <parse_nmea_line+0x28>
20102de0:	e1c18793          	addi	a5,gp,-484 # 201107fc <g_gps_data>
20102de4:	47b8                	lw	a4,72(a5)
20102de6:	0705                	addi	a4,a4,1
20102de8:	c7b8                	sw	a4,72(a5)
20102dea:	6149                	addi	sp,sp,144
20102dec:	cbcfd06f          	j	201002a8 <__riscv_restore_0>
20102df0:	e1c18793          	addi	a5,gp,-484 # 201107fc <g_gps_data>
20102df4:	43f8                	lw	a4,68(a5)
20102df6:	0705                	addi	a4,a4,1
20102df8:	c3f8                	sw	a4,68(a5)
20102dfa:	02000613          	li	a2,32
20102dfe:	080c                	addi	a1,sp,16
20102e00:	8522                	mv	a0,s0
20102e02:	bc3ff0ef          	jal	ra,201029c4 <split_fields>
20102e06:	842a                	mv	s0,a0
20102e08:	d16d                	beqz	a0,20102dea <parse_nmea_line+0x22>
20102e0a:	44c2                	lw	s1,16(sp)
20102e0c:	8526                	mv	a0,s1
20102e0e:	630010ef          	jal	ra,2010443e <strlen>
20102e12:	4791                	li	a5,4
20102e14:	fca7fbe3          	bgeu	a5,a0,20102dea <parse_nmea_line+0x22>
20102e18:	8526                	mv	a0,s1
20102e1a:	c09ff0ef          	jal	ra,20102a22 <talker_supported>
20102e1e:	d571                	beqz	a0,20102dea <parse_nmea_line+0x22>
20102e20:	468d                	li	a3,3
20102e22:	00248613          	addi	a2,s1,2
20102e26:	4599                	li	a1,6
20102e28:	0028                	addi	a0,sp,8
20102e2a:	f7bff0ef          	jal	ra,20102da4 <copy_field>
20102e2e:	468d                	li	a3,3
20102e30:	0030                	addi	a2,sp,8
20102e32:	4599                	li	a1,6
20102e34:	e6818513          	addi	a0,gp,-408 # 20110848 <g_gps_data+0x4c>
20102e38:	f6dff0ef          	jal	ra,20102da4 <copy_field>
20102e3c:	201065b7          	lui	a1,0x20106
20102e40:	dd058593          	addi	a1,a1,-560 # 20105dd0 <g_font_6x8+0x2e0>
20102e44:	0028                	addi	a0,sp,8
20102e46:	c94fd0ef          	jal	ra,201002da <strcmp>
20102e4a:	cd31                	beqz	a0,20102ea6 <parse_nmea_line+0xde>
20102e4c:	201065b7          	lui	a1,0x20106
20102e50:	dd458593          	addi	a1,a1,-556 # 20105dd4 <g_font_6x8+0x2e4>
20102e54:	0028                	addi	a0,sp,8
20102e56:	c84fd0ef          	jal	ra,201002da <strcmp>
20102e5a:	c939                	beqz	a0,20102eb0 <parse_nmea_line+0xe8>
20102e5c:	201065b7          	lui	a1,0x20106
20102e60:	dd858593          	addi	a1,a1,-552 # 20105dd8 <g_font_6x8+0x2e8>
20102e64:	0028                	addi	a0,sp,8
20102e66:	c74fd0ef          	jal	ra,201002da <strcmp>
20102e6a:	c921                	beqz	a0,20102eba <parse_nmea_line+0xf2>
20102e6c:	201065b7          	lui	a1,0x20106
20102e70:	ddc58593          	addi	a1,a1,-548 # 20105ddc <g_font_6x8+0x2ec>
20102e74:	0028                	addi	a0,sp,8
20102e76:	c64fd0ef          	jal	ra,201002da <strcmp>
20102e7a:	c529                	beqz	a0,20102ec4 <parse_nmea_line+0xfc>
20102e7c:	201065b7          	lui	a1,0x20106
20102e80:	de058593          	addi	a1,a1,-544 # 20105de0 <g_font_6x8+0x2f0>
20102e84:	0028                	addi	a0,sp,8
20102e86:	c54fd0ef          	jal	ra,201002da <strcmp>
20102e8a:	c131                	beqz	a0,20102ece <parse_nmea_line+0x106>
20102e8c:	201065b7          	lui	a1,0x20106
20102e90:	de458593          	addi	a1,a1,-540 # 20105de4 <g_font_6x8+0x2f4>
20102e94:	0028                	addi	a0,sp,8
20102e96:	c44fd0ef          	jal	ra,201002da <strcmp>
20102e9a:	f921                	bnez	a0,20102dea <parse_nmea_line+0x22>
20102e9c:	85a2                	mv	a1,s0
20102e9e:	0808                	addi	a0,sp,16
20102ea0:	e8bff0ef          	jal	ra,20102d2a <parse_gll>
20102ea4:	b799                	j	20102dea <parse_nmea_line+0x22>
20102ea6:	85a2                	mv	a1,s0
20102ea8:	0808                	addi	a0,sp,16
20102eaa:	bedff0ef          	jal	ra,20102a96 <parse_gga>
20102eae:	bf35                	j	20102dea <parse_nmea_line+0x22>
20102eb0:	85a2                	mv	a1,s0
20102eb2:	0808                	addi	a0,sp,16
20102eb4:	cbbff0ef          	jal	ra,20102b6e <parse_rmc>
20102eb8:	bf0d                	j	20102dea <parse_nmea_line+0x22>
20102eba:	85a2                	mv	a1,s0
20102ebc:	0808                	addi	a0,sp,16
20102ebe:	d95ff0ef          	jal	ra,20102c52 <parse_vtg>
20102ec2:	b725                	j	20102dea <parse_nmea_line+0x22>
20102ec4:	85a2                	mv	a1,s0
20102ec6:	0808                	addi	a0,sp,16
20102ec8:	df9ff0ef          	jal	ra,20102cc0 <parse_gsa>
20102ecc:	bf39                	j	20102dea <parse_nmea_line+0x22>
20102ece:	85a2                	mv	a1,s0
20102ed0:	0808                	addi	a0,sp,16
20102ed2:	e37ff0ef          	jal	ra,20102d08 <parse_gsv>
20102ed6:	bf11                	j	20102dea <parse_nmea_line+0x22>

20102ed8 <sensor_gps_init>:
20102ed8:	bacfd2ef          	jal	t0,20100284 <__riscv_save_0>
20102edc:	1101                	addi	sp,sp,-32
20102ede:	842a                	mv	s0,a0
20102ee0:	ca02                	sw	zero,20(sp)
20102ee2:	cc02                	sw	zero,24(sp)
20102ee4:	ce02                	sw	zero,28(sp)
20102ee6:	c202                	sw	zero,4(sp)
20102ee8:	c402                	sw	zero,8(sp)
20102eea:	c602                	sw	zero,12(sp)
20102eec:	c802                	sw	zero,16(sp)
20102eee:	4585                	li	a1,1
20102ef0:	00080537          	lui	a0,0x80
20102ef4:	bd8fe0ef          	jal	ra,201012cc <RCC_HB1PeriphClockCmd>
20102ef8:	4585                	li	a1,1
20102efa:	4545                	li	a0,17
20102efc:	bb4fe0ef          	jal	ra,201012b0 <RCC_HB2PeriphClockCmd>
20102f00:	461d                	li	a2,7
20102f02:	4599                	li	a1,6
20102f04:	40011537          	lui	a0,0x40011
20102f08:	9c1fd0ef          	jal	ra,201008c8 <GPIO_PinAFConfig>
20102f0c:	04000793          	li	a5,64
20102f10:	82fc                	sh	a5,20(sp)
20102f12:	478d                	li	a5,3
20102f14:	cc3e                	sw	a5,24(sp)
20102f16:	47e1                	li	a5,24
20102f18:	ce3e                	sw	a5,28(sp)
20102f1a:	084c                	addi	a1,sp,20
20102f1c:	40011537          	lui	a0,0x40011
20102f20:	897fd0ef          	jal	ra,201007b6 <GPIO_Init>
20102f24:	461d                	li	a2,7
20102f26:	459d                	li	a1,7
20102f28:	40011537          	lui	a0,0x40011
20102f2c:	99dfd0ef          	jal	ra,201008c8 <GPIO_PinAFConfig>
20102f30:	08000793          	li	a5,128
20102f34:	82fc                	sh	a5,20(sp)
20102f36:	4791                	li	a5,4
20102f38:	ce3e                	sw	a5,28(sp)
20102f3a:	084c                	addi	a1,sp,20
20102f3c:	40011537          	lui	a0,0x40011
20102f40:	877fd0ef          	jal	ra,201007b6 <GPIO_Init>
20102f44:	c222                	sw	s0,4(sp)
20102f46:	00011423          	sh	zero,8(sp)
20102f4a:	00011523          	sh	zero,10(sp)
20102f4e:	00011623          	sh	zero,12(sp)
20102f52:	00011823          	sh	zero,16(sp)
20102f56:	47b1                	li	a5,12
20102f58:	877c                	sh	a5,14(sp)
20102f5a:	004c                	addi	a1,sp,4
20102f5c:	40005437          	lui	s0,0x40005
20102f60:	c0040513          	addi	a0,s0,-1024 # 40004c00 <_eusrstack+0x1fe84c00>
20102f64:	f6afe0ef          	jal	ra,201016ce <USART_Init>
20102f68:	4585                	li	a1,1
20102f6a:	c0040513          	addi	a0,s0,-1024
20102f6e:	823fe0ef          	jal	ra,20101790 <USART_Cmd>
20102f72:	40400613          	li	a2,1028
20102f76:	4581                	li	a1,0
20102f78:	e7018513          	addi	a0,gp,-400 # 20110850 <g_gps_rx_fifo>
20102f7c:	b4efd0ef          	jal	ra,201002ca <memset>
20102f80:	e1c18493          	addi	s1,gp,-484 # 201107fc <g_gps_data>
20102f84:	05400613          	li	a2,84
20102f88:	4581                	li	a1,0
20102f8a:	e1c18513          	addi	a0,gp,-484 # 201107fc <g_gps_data>
20102f8e:	b3cfd0ef          	jal	ra,201002ca <memset>
20102f92:	4605                	li	a2,1
20102f94:	52500593          	li	a1,1317
20102f98:	c0040513          	addi	a0,s0,-1024
20102f9c:	80dfe0ef          	jal	ra,201017a8 <USART_ITConfig>
20102fa0:	e000e7b7          	lui	a5,0xe000e
20102fa4:	4705                	li	a4,1
20102fa6:	44e78aa3          	sb	a4,1109(a5) # e000e455 <_eusrstack+0xbfe8e455>
20102faa:	00200737          	lui	a4,0x200
20102fae:	10e7a423          	sw	a4,264(a5)
20102fb2:	02000593          	li	a1,32
20102fb6:	c0040513          	addi	a0,s0,-1024
20102fba:	84dfe0ef          	jal	ra,20101806 <USART_GetFlagStatus>
20102fbe:	00a03533          	snez	a0,a0
20102fc2:	a4c8                	sb	a0,12(s1)
20102fc4:	45a1                	li	a1,8
20102fc6:	c0040513          	addi	a0,s0,-1024
20102fca:	83dfe0ef          	jal	ra,20101806 <USART_GetFlagStatus>
20102fce:	00a03533          	snez	a0,a0
20102fd2:	b4c8                	sb	a0,13(s1)
20102fd4:	4589                	li	a1,2
20102fd6:	c0040513          	addi	a0,s0,-1024
20102fda:	82dfe0ef          	jal	ra,20101806 <USART_GetFlagStatus>
20102fde:	00a03533          	snez	a0,a0
20102fe2:	a4e8                	sb	a0,14(s1)
20102fe4:	4591                	li	a1,4
20102fe6:	c0040513          	addi	a0,s0,-1024
20102fea:	81dfe0ef          	jal	ra,20101806 <USART_GetFlagStatus>
20102fee:	00a03533          	snez	a0,a0
20102ff2:	b4e8                	sb	a0,15(s1)
20102ff4:	86019823          	sh	zero,-1936(gp) # 20110250 <g_nmea_idx>
20102ff8:	86018723          	sb	zero,-1938(gp) # 2011024e <g_nmea_collecting>
20102ffc:	6105                	addi	sp,sp,32
20102ffe:	aaafd06f          	j	201002a8 <__riscv_restore_0>

20103002 <sensor_gps_poll>:
20103002:	a82fd2ef          	jal	t0,20100284 <__riscv_save_0>
20103006:	02000593          	li	a1,32
2010300a:	400054b7          	lui	s1,0x40005
2010300e:	c0048513          	addi	a0,s1,-1024 # 40004c00 <_eusrstack+0x1fe84c00>
20103012:	ff4fe0ef          	jal	ra,20101806 <USART_GetFlagStatus>
20103016:	00a03533          	snez	a0,a0
2010301a:	e1c18413          	addi	s0,gp,-484 # 201107fc <g_gps_data>
2010301e:	a448                	sb	a0,12(s0)
20103020:	45a1                	li	a1,8
20103022:	c0048513          	addi	a0,s1,-1024
20103026:	fe0fe0ef          	jal	ra,20101806 <USART_GetFlagStatus>
2010302a:	00a03533          	snez	a0,a0
2010302e:	b448                	sb	a0,13(s0)
20103030:	4589                	li	a1,2
20103032:	c0048513          	addi	a0,s1,-1024
20103036:	fd0fe0ef          	jal	ra,20101806 <USART_GetFlagStatus>
2010303a:	00a03533          	snez	a0,a0
2010303e:	a468                	sb	a0,14(s0)
20103040:	4591                	li	a1,4
20103042:	c0048513          	addi	a0,s1,-1024
20103046:	fc0fe0ef          	jal	ra,20101806 <USART_GetFlagStatus>
2010304a:	00a03533          	snez	a0,a0
2010304e:	b468                	sb	a0,15(s0)
20103050:	02000593          	li	a1,32
20103054:	40005537          	lui	a0,0x40005
20103058:	c0050513          	addi	a0,a0,-1024 # 40004c00 <_eusrstack+0x1fe84c00>
2010305c:	faafe0ef          	jal	ra,20101806 <USART_GetFlagStatus>
20103060:	c131                	beqz	a0,201030a4 <sensor_gps_poll+0xa2>
20103062:	40005537          	lui	a0,0x40005
20103066:	c0050513          	addi	a0,a0,-1024 # 40004c00 <_eusrstack+0x1fe84c00>
2010306a:	f94fe0ef          	jal	ra,201017fe <USART_ReceiveData>
2010306e:	0ff57513          	zext.b	a0,a0
20103072:	e7018713          	addi	a4,gp,-400 # 20110850 <g_gps_rx_fifo>
20103076:	40275583          	lhu	a1,1026(a4) # 200402 <_data_lma+0x1fa002>
2010307a:	00158693          	addi	a3,a1,1
2010307e:	3ff6f693          	andi	a3,a3,1023
20103082:	e1c18793          	addi	a5,gp,-484 # 201107fc <g_gps_data>
20103086:	43d0                	lw	a2,4(a5)
20103088:	0605                	addi	a2,a2,1
2010308a:	c3d0                	sw	a2,4(a5)
2010308c:	a788                	sb	a0,8(a5)
2010308e:	40075783          	lhu	a5,1024(a4)
20103092:	fad78fe3          	beq	a5,a3,20103050 <sensor_gps_poll+0x4e>
20103096:	e7018793          	addi	a5,gp,-400 # 20110850 <g_gps_rx_fifo>
2010309a:	95be                	add	a1,a1,a5
2010309c:	a188                	sb	a0,0(a1)
2010309e:	40d79123          	sh	a3,1026(a5)
201030a2:	b77d                	j	20103050 <sensor_gps_poll+0x4e>
201030a4:	e88ff0ef          	jal	ra,2010272c <fifo_available>
201030a8:	e1c18793          	addi	a5,gp,-484 # 201107fc <g_gps_data>
201030ac:	a7aa                	sh	a0,10(a5)
201030ae:	a811                	j	201030c2 <sensor_gps_poll+0xc0>
201030b0:	4705                	li	a4,1
201030b2:	86e18723          	sb	a4,-1938(gp) # 2011024e <g_nmea_collecting>
201030b6:	86019823          	sh	zero,-1936(gp) # 20110250 <g_nmea_idx>
201030ba:	86e19823          	sh	a4,-1936(gp) # 20110250 <g_nmea_idx>
201030be:	d8a18e23          	sb	a0,-612(gp) # 2011077c <g_nmea_line>
201030c2:	e6aff0ef          	jal	ra,2010272c <fifo_available>
201030c6:	c525                	beqz	a0,2010312e <sensor_gps_poll+0x12c>
201030c8:	e88ff0ef          	jal	ra,20102750 <fifo_read>
201030cc:	60451513          	sext.b	a0,a0
201030d0:	02400793          	li	a5,36
201030d4:	fcf50ee3          	beq	a0,a5,201030b0 <sensor_gps_poll+0xae>
201030d8:	86e1c783          	lbu	a5,-1938(gp) # 2011024e <g_nmea_collecting>
201030dc:	d3fd                	beqz	a5,201030c2 <sensor_gps_poll+0xc0>
201030de:	47b5                	li	a5,13
201030e0:	fef501e3          	beq	a0,a5,201030c2 <sensor_gps_poll+0xc0>
201030e4:	47a9                	li	a5,10
201030e6:	02f50163          	beq	a0,a5,20103108 <sensor_gps_poll+0x106>
201030ea:	8701d703          	lhu	a4,-1936(gp) # 20110250 <g_nmea_idx>
201030ee:	07e00793          	li	a5,126
201030f2:	02e7e963          	bltu	a5,a4,20103124 <sensor_gps_poll+0x122>
201030f6:	00170693          	addi	a3,a4,1
201030fa:	86d19823          	sh	a3,-1936(gp) # 20110250 <g_nmea_idx>
201030fe:	d9c18793          	addi	a5,gp,-612 # 2011077c <g_nmea_line>
20103102:	97ba                	add	a5,a5,a4
20103104:	a388                	sb	a0,0(a5)
20103106:	bf75                	j	201030c2 <sensor_gps_poll+0xc0>
20103108:	8701d703          	lhu	a4,-1936(gp) # 20110250 <g_nmea_idx>
2010310c:	d9c18793          	addi	a5,gp,-612 # 2011077c <g_nmea_line>
20103110:	97ba                	add	a5,a5,a4
20103112:	00078023          	sb	zero,0(a5)
20103116:	86018723          	sb	zero,-1938(gp) # 2011024e <g_nmea_collecting>
2010311a:	d9c18513          	addi	a0,gp,-612 # 2011077c <g_nmea_line>
2010311e:	cabff0ef          	jal	ra,20102dc8 <parse_nmea_line>
20103122:	b745                	j	201030c2 <sensor_gps_poll+0xc0>
20103124:	86018723          	sb	zero,-1938(gp) # 2011024e <g_nmea_collecting>
20103128:	86019823          	sh	zero,-1936(gp) # 20110250 <g_nmea_idx>
2010312c:	bf59                	j	201030c2 <sensor_gps_poll+0xc0>
2010312e:	97afd06f          	j	201002a8 <__riscv_restore_0>

20103132 <sensor_gps_get_data>:
20103132:	872a                	mv	a4,a0
20103134:	e1c18693          	addi	a3,gp,-484 # 201107fc <g_gps_data>
20103138:	0526c503          	lbu	a0,82(a3)
2010313c:	e1c18793          	addi	a5,gp,-484 # 201107fc <g_gps_data>
20103140:	05078693          	addi	a3,a5,80
20103144:	0007a883          	lw	a7,0(a5)
20103148:	0047a803          	lw	a6,4(a5)
2010314c:	478c                	lw	a1,8(a5)
2010314e:	47d0                	lw	a2,12(a5)
20103150:	01172023          	sw	a7,0(a4)
20103154:	01072223          	sw	a6,4(a4)
20103158:	c70c                	sw	a1,8(a4)
2010315a:	c750                	sw	a2,12(a4)
2010315c:	07c1                	addi	a5,a5,16
2010315e:	0741                	addi	a4,a4,16
20103160:	fed792e3          	bne	a5,a3,20103144 <sensor_gps_get_data+0x12>
20103164:	439c                	lw	a5,0(a5)
20103166:	c31c                	sw	a5,0(a4)
20103168:	e1c18793          	addi	a5,gp,-484 # 201107fc <g_gps_data>
2010316c:	04078923          	sb	zero,82(a5)
20103170:	8082                	ret

20103172 <SENSOR_GPS_UART_IRQHandler>:
20103172:	912fd2ef          	jal	t0,20100284 <__riscv_save_0>
20103176:	45a1                	li	a1,8
20103178:	40005537          	lui	a0,0x40005
2010317c:	c0050513          	addi	a0,a0,-1024 # 40004c00 <_eusrstack+0x1fe84c00>
20103180:	e86fe0ef          	jal	ra,20101806 <USART_GetFlagStatus>
20103184:	cd01                	beqz	a0,2010319c <SENSOR_GPS_UART_IRQHandler+0x2a>
20103186:	e1c18793          	addi	a5,gp,-484 # 201107fc <g_gps_data>
2010318a:	4705                	li	a4,1
2010318c:	b7d8                	sb	a4,13(a5)
2010318e:	400057b7          	lui	a5,0x40005
20103192:	c0078713          	addi	a4,a5,-1024 # 40004c00 <_eusrstack+0x1fe84c00>
20103196:	c007d783          	lhu	a5,-1024(a5)
2010319a:	235e                	lhu	a5,4(a4)
2010319c:	4589                	li	a1,2
2010319e:	40005537          	lui	a0,0x40005
201031a2:	c0050513          	addi	a0,a0,-1024 # 40004c00 <_eusrstack+0x1fe84c00>
201031a6:	e60fe0ef          	jal	ra,20101806 <USART_GetFlagStatus>
201031aa:	c509                	beqz	a0,201031b4 <SENSOR_GPS_UART_IRQHandler+0x42>
201031ac:	e1c18793          	addi	a5,gp,-484 # 201107fc <g_gps_data>
201031b0:	4705                	li	a4,1
201031b2:	a7f8                	sb	a4,14(a5)
201031b4:	4591                	li	a1,4
201031b6:	40005537          	lui	a0,0x40005
201031ba:	c0050513          	addi	a0,a0,-1024 # 40004c00 <_eusrstack+0x1fe84c00>
201031be:	e48fe0ef          	jal	ra,20101806 <USART_GetFlagStatus>
201031c2:	c509                	beqz	a0,201031cc <SENSOR_GPS_UART_IRQHandler+0x5a>
201031c4:	e1c18793          	addi	a5,gp,-484 # 201107fc <g_gps_data>
201031c8:	4705                	li	a4,1
201031ca:	b7f8                	sb	a4,15(a5)
201031cc:	02000593          	li	a1,32
201031d0:	40005537          	lui	a0,0x40005
201031d4:	c0050513          	addi	a0,a0,-1024 # 40004c00 <_eusrstack+0x1fe84c00>
201031d8:	e2efe0ef          	jal	ra,20101806 <USART_GetFlagStatus>
201031dc:	e119                	bnez	a0,201031e2 <SENSOR_GPS_UART_IRQHandler+0x70>
201031de:	8cafd06f          	j	201002a8 <__riscv_restore_0>
201031e2:	40005537          	lui	a0,0x40005
201031e6:	c0050513          	addi	a0,a0,-1024 # 40004c00 <_eusrstack+0x1fe84c00>
201031ea:	e14fe0ef          	jal	ra,201017fe <USART_ReceiveData>
201031ee:	0ff57513          	zext.b	a0,a0
201031f2:	e7018713          	addi	a4,gp,-400 # 20110850 <g_gps_rx_fifo>
201031f6:	40275583          	lhu	a1,1026(a4)
201031fa:	00158693          	addi	a3,a1,1
201031fe:	3ff6f693          	andi	a3,a3,1023
20103202:	e1c18793          	addi	a5,gp,-484 # 201107fc <g_gps_data>
20103206:	4390                	lw	a2,0(a5)
20103208:	0605                	addi	a2,a2,1
2010320a:	c390                	sw	a2,0(a5)
2010320c:	a788                	sb	a0,8(a5)
2010320e:	40075783          	lhu	a5,1024(a4)
20103212:	00d78863          	beq	a5,a3,20103222 <SENSOR_GPS_UART_IRQHandler+0xb0>
20103216:	e7018793          	addi	a5,gp,-400 # 20110850 <g_gps_rx_fifo>
2010321a:	95be                	add	a1,a1,a5
2010321c:	a188                	sb	a0,0(a1)
2010321e:	40d79123          	sh	a3,1026(a5)
20103222:	d0aff0ef          	jal	ra,2010272c <fifo_available>
20103226:	e1c18793          	addi	a5,gp,-484 # 201107fc <g_gps_data>
2010322a:	a7aa                	sh	a0,10(a5)
2010322c:	bf4d                	j	201031de <SENSOR_GPS_UART_IRQHandler+0x6c>

2010322e <Delay_Init>:
2010322e:	8401a783          	lw	a5,-1984(gp) # 20110220 <HCLKClock>
20103232:	000f4737          	lui	a4,0xf4
20103236:	24070713          	addi	a4,a4,576 # f4240 <_data_lma+0xede40>
2010323a:	02e7d7b3          	divu	a5,a5,a4
2010323e:	86f19c23          	sh	a5,-1928(gp) # 20110258 <p_us>
20103242:	0807c7b3          	zext.h	a5,a5
20103246:	3e800713          	li	a4,1000
2010324a:	02e787b3          	mul	a5,a5,a4
2010324e:	86f1aa23          	sw	a5,-1932(gp) # 20110254 <p_ms>
20103252:	8082                	ret

20103254 <Delay_Us>:
20103254:	e000f7b7          	lui	a5,0xe000f
20103258:	43d8                	lw	a4,4(a5)
2010325a:	9b79                	andi	a4,a4,-2
2010325c:	c3d8                	sw	a4,4(a5)
2010325e:	8781d703          	lhu	a4,-1928(gp) # 20110258 <p_us>
20103262:	02a70733          	mul	a4,a4,a0
20103266:	0007a423          	sw	zero,8(a5) # e000f008 <_eusrstack+0xbfe8f008>
2010326a:	cb98                	sw	a4,16(a5)
2010326c:	4711                	li	a4,4
2010326e:	c398                	sw	a4,0(a5)
20103270:	4398                	lw	a4,0(a5)
20103272:	00176713          	ori	a4,a4,1
20103276:	c398                	sw	a4,0(a5)
20103278:	e000f7b7          	lui	a5,0xe000f
2010327c:	43dc                	lw	a5,4(a5)
2010327e:	8b85                	andi	a5,a5,1
20103280:	dfe5                	beqz	a5,20103278 <Delay_Us+0x24>
20103282:	e000f737          	lui	a4,0xe000f
20103286:	431c                	lw	a5,0(a4)
20103288:	9bf9                	andi	a5,a5,-2
2010328a:	c31c                	sw	a5,0(a4)
2010328c:	8082                	ret

2010328e <Delay_Ms>:
2010328e:	e000f7b7          	lui	a5,0xe000f
20103292:	43d8                	lw	a4,4(a5)
20103294:	9b79                	andi	a4,a4,-2
20103296:	c3d8                	sw	a4,4(a5)
20103298:	8741a703          	lw	a4,-1932(gp) # 20110254 <p_ms>
2010329c:	02a70733          	mul	a4,a4,a0
201032a0:	0007a423          	sw	zero,8(a5) # e000f008 <_eusrstack+0xbfe8f008>
201032a4:	cb98                	sw	a4,16(a5)
201032a6:	4711                	li	a4,4
201032a8:	c398                	sw	a4,0(a5)
201032aa:	4398                	lw	a4,0(a5)
201032ac:	00176713          	ori	a4,a4,1
201032b0:	c398                	sw	a4,0(a5)
201032b2:	e000f7b7          	lui	a5,0xe000f
201032b6:	43dc                	lw	a5,4(a5)
201032b8:	8b85                	andi	a5,a5,1
201032ba:	dfe5                	beqz	a5,201032b2 <Delay_Ms+0x24>
201032bc:	e000f737          	lui	a4,0xe000f
201032c0:	431c                	lw	a5,0(a4)
201032c2:	9bf9                	andi	a5,a5,-2
201032c4:	c31c                	sw	a5,0(a4)
201032c6:	8082                	ret

201032c8 <USART_Printf_Init>:
201032c8:	fbdfc2ef          	jal	t0,20100284 <__riscv_save_0>
201032cc:	1101                	addi	sp,sp,-32
201032ce:	842a                	mv	s0,a0
201032d0:	ca02                	sw	zero,20(sp)
201032d2:	cc02                	sw	zero,24(sp)
201032d4:	ce02                	sw	zero,28(sp)
201032d6:	c202                	sw	zero,4(sp)
201032d8:	c402                	sw	zero,8(sp)
201032da:	c602                	sw	zero,12(sp)
201032dc:	c802                	sw	zero,16(sp)
201032de:	4585                	li	a1,1
201032e0:	6511                	lui	a0,0x4
201032e2:	0525                	addi	a0,a0,9 # 4009 <__stack_size+0x3809>
201032e4:	fcdfd0ef          	jal	ra,201012b0 <RCC_HB2PeriphClockCmd>
201032e8:	461d                	li	a2,7
201032ea:	4599                	li	a1,6
201032ec:	400114b7          	lui	s1,0x40011
201032f0:	c0048513          	addi	a0,s1,-1024 # 40010c00 <_eusrstack+0x1fe90c00>
201032f4:	dd4fd0ef          	jal	ra,201008c8 <GPIO_PinAFConfig>
201032f8:	04000793          	li	a5,64
201032fc:	82fc                	sh	a5,20(sp)
201032fe:	478d                	li	a5,3
20103300:	cc3e                	sw	a5,24(sp)
20103302:	47e1                	li	a5,24
20103304:	ce3e                	sw	a5,28(sp)
20103306:	084c                	addi	a1,sp,20
20103308:	c0048513          	addi	a0,s1,-1024
2010330c:	caafd0ef          	jal	ra,201007b6 <GPIO_Init>
20103310:	c222                	sw	s0,4(sp)
20103312:	00011423          	sh	zero,8(sp)
20103316:	00011523          	sh	zero,10(sp)
2010331a:	00011623          	sh	zero,12(sp)
2010331e:	00011823          	sh	zero,16(sp)
20103322:	47a1                	li	a5,8
20103324:	877c                	sh	a5,14(sp)
20103326:	004c                	addi	a1,sp,4
20103328:	40014437          	lui	s0,0x40014
2010332c:	80040513          	addi	a0,s0,-2048 # 40013800 <_eusrstack+0x1fe93800>
20103330:	b9efe0ef          	jal	ra,201016ce <USART_Init>
20103334:	4585                	li	a1,1
20103336:	80040513          	addi	a0,s0,-2048
2010333a:	c56fe0ef          	jal	ra,20101790 <USART_Cmd>
2010333e:	6105                	addi	sp,sp,32
20103340:	f69fc06f          	j	201002a8 <__riscv_restore_0>

20103344 <_write>:
20103344:	f27fc2ef          	jal	t0,2010026a <__riscv_save_4>
20103348:	842e                	mv	s0,a1
2010334a:	89b2                	mv	s3,a2
2010334c:	4481                	li	s1,0
2010334e:	a805                	j	2010337e <_write+0x3a>
20103350:	04000593          	li	a1,64
20103354:	40014537          	lui	a0,0x40014
20103358:	80050513          	addi	a0,a0,-2048 # 40013800 <_eusrstack+0x1fe93800>
2010335c:	caafe0ef          	jal	ra,20101806 <USART_GetFlagStatus>
20103360:	d965                	beqz	a0,20103350 <_write+0xc>
20103362:	00140913          	addi	s2,s0,1
20103366:	00040583          	lb	a1,0(s0)
2010336a:	0805c5b3          	zext.h	a1,a1
2010336e:	40014537          	lui	a0,0x40014
20103372:	80050513          	addi	a0,a0,-2048 # 40013800 <_eusrstack+0x1fe93800>
20103376:	c80fe0ef          	jal	ra,201017f6 <USART_SendData>
2010337a:	0485                	addi	s1,s1,1
2010337c:	844a                	mv	s0,s2
2010337e:	fd34c9e3          	blt	s1,s3,20103350 <_write+0xc>
20103382:	854e                	mv	a0,s3
20103384:	f1bfc06f          	j	2010029e <__riscv_restore_4>

20103388 <_sbrk>:
20103388:	87aa                	mv	a5,a0
2010338a:	8281a503          	lw	a0,-2008(gp) # 20110208 <curbrk.0>
2010338e:	97aa                	add	a5,a5,a0
20103390:	2c818713          	addi	a4,gp,712 # 20110ca8 <_ebss>
20103394:	00e7eb63          	bltu	a5,a4,201033aa <_sbrk+0x22>
20103398:	20180737          	lui	a4,0x20180
2010339c:	80070713          	addi	a4,a4,-2048 # 2017f800 <_heap_end>
201033a0:	00f76763          	bltu	a4,a5,201033ae <_sbrk+0x26>
201033a4:	82f1a423          	sw	a5,-2008(gp) # 20110208 <curbrk.0>
201033a8:	8082                	ret
201033aa:	557d                	li	a0,-1
201033ac:	8082                	ret
201033ae:	557d                	li	a0,-1
201033b0:	8082                	ret

201033b2 <abs_i32>:
201033b2:	40a007b3          	neg	a5,a0
201033b6:	0af56533          	max	a0,a0,a5
201033ba:	8082                	ret

201033bc <gps_fix_type_text>:
201033bc:	478d                	li	a5,3
201033be:	00f50a63          	beq	a0,a5,201033d2 <gps_fix_type_text+0x16>
201033c2:	4789                	li	a5,2
201033c4:	00f50c63          	beq	a0,a5,201033dc <gps_fix_type_text+0x20>
201033c8:	20106537          	lui	a0,0x20106
201033cc:	df050513          	addi	a0,a0,-528 # 20105df0 <g_font_6x8+0x300>
201033d0:	8082                	ret
201033d2:	20106537          	lui	a0,0x20106
201033d6:	de850513          	addi	a0,a0,-536 # 20105de8 <g_font_6x8+0x2f8>
201033da:	8082                	ret
201033dc:	20106537          	lui	a0,0x20106
201033e0:	dec50513          	addi	a0,a0,-532 # 20105dec <g_font_6x8+0x2fc>
201033e4:	8082                	ret

201033e6 <format_deg_e7>:
201033e6:	e9ffc2ef          	jal	t0,20100284 <__riscv_save_0>
201033ea:	84aa                	mv	s1,a0
201033ec:	892e                	mv	s2,a1
201033ee:	8432                	mv	s0,a2
201033f0:	8532                	mv	a0,a2
201033f2:	fc1ff0ef          	jal	ra,201033b2 <abs_i32>
201033f6:	02044663          	bltz	s0,20103422 <format_deg_e7+0x3c>
201033fa:	02b00693          	li	a3,43
201033fe:	00989637          	lui	a2,0x989
20103402:	68060613          	addi	a2,a2,1664 # 989680 <_data_lma+0x983280>
20103406:	02c567b3          	rem	a5,a0,a2
2010340a:	02c54733          	div	a4,a0,a2
2010340e:	20106637          	lui	a2,0x20106
20103412:	df460613          	addi	a2,a2,-524 # 20105df4 <g_font_6x8+0x304>
20103416:	85ca                	mv	a1,s2
20103418:	8526                	mv	a0,s1
2010341a:	7b7000ef          	jal	ra,201043d0 <sniprintf>
2010341e:	e8bfc06f          	j	201002a8 <__riscv_restore_0>
20103422:	02d00693          	li	a3,45
20103426:	bfe1                	j	201033fe <format_deg_e7+0x18>

20103428 <oled_show_gps_page>:
20103428:	e43fc2ef          	jal	t0,2010026a <__riscv_save_4>
2010342c:	7179                	addi	sp,sp,-48
2010342e:	842a                	mv	s0,a0
20103430:	03852903          	lw	s2,56(a0)
20103434:	3e800993          	li	s3,1000
20103438:	033959b3          	divu	s3,s2,s3
2010343c:	de9fe0ef          	jal	ra,20102224 <oled_clear>
20103440:	281c                	lbu	a5,16(s0)
20103442:	18078363          	beqz	a5,201035c8 <oled_show_gps_page+0x1a0>
20103446:	04100493          	li	s1,65
2010344a:	2828                	lbu	a0,18(s0)
2010344c:	f71ff0ef          	jal	ra,201033bc <gps_fix_type_text>
20103450:	872a                	mv	a4,a0
20103452:	01444883          	lbu	a7,20(s0)
20103456:	01344803          	lbu	a6,19(s0)
2010345a:	381c                	lbu	a5,17(s0)
2010345c:	86a6                	mv	a3,s1
2010345e:	20106637          	lui	a2,0x20106
20103462:	e0060613          	addi	a2,a2,-512 # 20105e00 <g_font_6x8+0x310>
20103466:	45e1                	li	a1,24
20103468:	0828                	addi	a0,sp,24
2010346a:	767000ef          	jal	ra,201043d0 <sniprintf>
2010346e:	4699                	li	a3,6
20103470:	0830                	addi	a2,sp,24
20103472:	4581                	li	a1,0
20103474:	4501                	li	a0,0
20103476:	f73fe0ef          	jal	ra,201023e8 <oled_show_string>
2010347a:	4c10                	lw	a2,24(s0)
2010347c:	45c1                	li	a1,16
2010347e:	0028                	addi	a0,sp,8
20103480:	f67ff0ef          	jal	ra,201033e6 <format_deg_e7>
20103484:	0034                	addi	a3,sp,8
20103486:	20106637          	lui	a2,0x20106
2010348a:	e1c60613          	addi	a2,a2,-484 # 20105e1c <g_font_6x8+0x32c>
2010348e:	45e1                	li	a1,24
20103490:	0828                	addi	a0,sp,24
20103492:	73f000ef          	jal	ra,201043d0 <sniprintf>
20103496:	4699                	li	a3,6
20103498:	0830                	addi	a2,sp,24
2010349a:	45a1                	li	a1,8
2010349c:	4501                	li	a0,0
2010349e:	f4bfe0ef          	jal	ra,201023e8 <oled_show_string>
201034a2:	4c50                	lw	a2,28(s0)
201034a4:	45c1                	li	a1,16
201034a6:	0028                	addi	a0,sp,8
201034a8:	f3fff0ef          	jal	ra,201033e6 <format_deg_e7>
201034ac:	0034                	addi	a3,sp,8
201034ae:	20106637          	lui	a2,0x20106
201034b2:	e2460613          	addi	a2,a2,-476 # 20105e24 <g_font_6x8+0x334>
201034b6:	45e1                	li	a1,24
201034b8:	0828                	addi	a0,sp,24
201034ba:	717000ef          	jal	ra,201043d0 <sniprintf>
201034be:	4699                	li	a3,6
201034c0:	0830                	addi	a2,sp,24
201034c2:	45c1                	li	a1,16
201034c4:	4501                	li	a0,0
201034c6:	f23fe0ef          	jal	ra,201023e8 <oled_show_string>
201034ca:	02042a83          	lw	s5,32(s0)
201034ce:	3e800a13          	li	s4,1000
201034d2:	034ae533          	rem	a0,s5,s4
201034d6:	eddff0ef          	jal	ra,201033b2 <abs_i32>
201034da:	06400493          	li	s1,100
201034de:	02954733          	div	a4,a0,s1
201034e2:	034ac6b3          	div	a3,s5,s4
201034e6:	20106637          	lui	a2,0x20106
201034ea:	e2c60613          	addi	a2,a2,-468 # 20105e2c <g_font_6x8+0x33c>
201034ee:	45e1                	li	a1,24
201034f0:	0828                	addi	a0,sp,24
201034f2:	6df000ef          	jal	ra,201043d0 <sniprintf>
201034f6:	4699                	li	a3,6
201034f8:	0830                	addi	a2,sp,24
201034fa:	45e1                	li	a1,24
201034fc:	4501                	li	a0,0
201034fe:	eebfe0ef          	jal	ra,201023e8 <oled_show_string>
20103502:	5814                	lw	a3,48(s0)
20103504:	0296f733          	remu	a4,a3,s1
20103508:	0296d6b3          	divu	a3,a3,s1
2010350c:	20106637          	lui	a2,0x20106
20103510:	e3c60613          	addi	a2,a2,-452 # 20105e3c <g_font_6x8+0x34c>
20103514:	45e1                	li	a1,24
20103516:	0828                	addi	a0,sp,24
20103518:	6b9000ef          	jal	ra,201043d0 <sniprintf>
2010351c:	4699                	li	a3,6
2010351e:	0830                	addi	a2,sp,24
20103520:	02000593          	li	a1,32
20103524:	4501                	li	a0,0
20103526:	ec3fe0ef          	jal	ra,201023e8 <oled_show_string>
2010352a:	3856                	lhu	a3,52(s0)
2010352c:	341e                	lhu	a5,40(s0)
2010352e:	0297f833          	remu	a6,a5,s1
20103532:	0297d7b3          	divu	a5,a5,s1
20103536:	0296f733          	remu	a4,a3,s1
2010353a:	0296d6b3          	divu	a3,a3,s1
2010353e:	20106637          	lui	a2,0x20106
20103542:	e5060613          	addi	a2,a2,-432 # 20105e50 <g_font_6x8+0x360>
20103546:	45e1                	li	a1,24
20103548:	0828                	addi	a0,sp,24
2010354a:	687000ef          	jal	ra,201043d0 <sniprintf>
2010354e:	4699                	li	a3,6
20103550:	0830                	addi	a2,sp,24
20103552:	02800593          	li	a1,40
20103556:	4501                	li	a0,0
20103558:	e91fe0ef          	jal	ra,201023e8 <oled_show_string>
2010355c:	0036f7b7          	lui	a5,0x36f
20103560:	e8078793          	addi	a5,a5,-384 # 36ee80 <_data_lma+0x368a80>
20103564:	02f95933          	divu	s2,s2,a5
20103568:	03c00713          	li	a4,60
2010356c:	02e9d6b3          	divu	a3,s3,a4
20103570:	02e9f7b3          	remu	a5,s3,a4
20103574:	02e6f733          	remu	a4,a3,a4
20103578:	46e1                	li	a3,24
2010357a:	02d976b3          	remu	a3,s2,a3
2010357e:	20106637          	lui	a2,0x20106
20103582:	e6860613          	addi	a2,a2,-408 # 20105e68 <g_font_6x8+0x378>
20103586:	45e1                	li	a1,24
20103588:	0828                	addi	a0,sp,24
2010358a:	647000ef          	jal	ra,201043d0 <sniprintf>
2010358e:	4699                	li	a3,6
20103590:	0830                	addi	a2,sp,24
20103592:	03000593          	li	a1,48
20103596:	4501                	li	a0,0
20103598:	e51fe0ef          	jal	ra,201023e8 <oled_show_string>
2010359c:	4078                	lw	a4,68(s0)
2010359e:	4034                	lw	a3,64(s0)
201035a0:	20106637          	lui	a2,0x20106
201035a4:	e8060613          	addi	a2,a2,-384 # 20105e80 <g_font_6x8+0x390>
201035a8:	45e1                	li	a1,24
201035aa:	0828                	addi	a0,sp,24
201035ac:	625000ef          	jal	ra,201043d0 <sniprintf>
201035b0:	4699                	li	a3,6
201035b2:	0830                	addi	a2,sp,24
201035b4:	03800593          	li	a1,56
201035b8:	4501                	li	a0,0
201035ba:	e2ffe0ef          	jal	ra,201023e8 <oled_show_string>
201035be:	c79fe0ef          	jal	ra,20102236 <oled_refresh>
201035c2:	6145                	addi	sp,sp,48
201035c4:	cdbfc06f          	j	2010029e <__riscv_restore_4>
201035c8:	05600493          	li	s1,86
201035cc:	bdbd                	j	2010344a <oled_show_gps_page+0x22>

201035ce <Hardware>:
201035ce:	c9dfc2ef          	jal	t0,2010026a <__riscv_save_4>
201035d2:	7175                	addi	sp,sp,-144
201035d4:	20106537          	lui	a0,0x20106
201035d8:	e9050513          	addi	a0,a0,-368 # 20105e90 <g_font_6x8+0x3a0>
201035dc:	5eb000ef          	jal	ra,201043c6 <puts>
201035e0:	4585                	li	a1,1
201035e2:	4521                	li	a0,8
201035e4:	ccdfd0ef          	jal	ra,201012b0 <RCC_HB2PeriphClockCmd>
201035e8:	ca02                	sw	zero,20(sp)
201035ea:	cc02                	sw	zero,24(sp)
201035ec:	ce02                	sw	zero,28(sp)
201035ee:	4785                	li	a5,1
201035f0:	82fc                	sh	a5,20(sp)
201035f2:	47c1                	li	a5,16
201035f4:	ce3e                	sw	a5,28(sp)
201035f6:	478d                	li	a5,3
201035f8:	cc3e                	sw	a5,24(sp)
201035fa:	084c                	addi	a1,sp,20
201035fc:	40011537          	lui	a0,0x40011
20103600:	c0050513          	addi	a0,a0,-1024 # 40010c00 <_eusrstack+0x1fe90c00>
20103604:	9b2fd0ef          	jal	ra,201007b6 <GPIO_Init>
20103608:	6571                	lui	a0,0x1c
2010360a:	20050513          	addi	a0,a0,512 # 1c200 <_data_lma+0x15e00>
2010360e:	c9efe0ef          	jal	ra,20101aac <atk_ms901m_init>
20103612:	cd05                	beqz	a0,2010364a <Hardware+0x7c>
20103614:	20106537          	lui	a0,0x20106
20103618:	ea850513          	addi	a0,a0,-344 # 20105ea8 <g_font_6x8+0x3b8>
2010361c:	5ab000ef          	jal	ra,201043c6 <puts>
20103620:	4585                	li	a1,1
20103622:	40011437          	lui	s0,0x40011
20103626:	c0040513          	addi	a0,s0,-1024 # 40010c00 <_eusrstack+0x1fe90c00>
2010362a:	a9afd0ef          	jal	ra,201008c4 <GPIO_ResetBits>
2010362e:	06400513          	li	a0,100
20103632:	c5dff0ef          	jal	ra,2010328e <Delay_Ms>
20103636:	4585                	li	a1,1
20103638:	c0040513          	addi	a0,s0,-1024
2010363c:	a84fd0ef          	jal	ra,201008c0 <GPIO_SetBits>
20103640:	06400513          	li	a0,100
20103644:	c4bff0ef          	jal	ra,2010328e <Delay_Ms>
20103648:	bfe1                	j	20103620 <Hardware+0x52>
2010364a:	842a                	mv	s0,a0
2010364c:	20106537          	lui	a0,0x20106
20103650:	efc50513          	addi	a0,a0,-260 # 20105efc <g_font_6x8+0x40c>
20103654:	573000ef          	jal	ra,201043c6 <puts>
20103658:	f2afe0ef          	jal	ra,20101d82 <bsp_esc_pwm_init>
2010365c:	20106537          	lui	a0,0x20106
20103660:	f1c50513          	addi	a0,a0,-228 # 20105f1c <g_font_6x8+0x42c>
20103664:	563000ef          	jal	ra,201043c6 <puts>
20103668:	42400693          	li	a3,1060
2010366c:	42400613          	li	a2,1060
20103670:	42400593          	li	a1,1060
20103674:	42400513          	li	a0,1060
20103678:	82dfe0ef          	jal	ra,20101ea4 <bsp_esc_pwm_set_all>
2010367c:	2a75                	jal	20103838 <ipc_comm_init>
2010367e:	86dfe0ef          	jal	ra,20101eea <bsp_tof_tfmini_init>
20103682:	20106537          	lui	a0,0x20106
20103686:	f5450513          	addi	a0,a0,-172 # 20105f54 <g_font_6x8+0x464>
2010368a:	53d000ef          	jal	ra,201043c6 <puts>
2010368e:	f27fe0ef          	jal	ra,201025b4 <sensor_flow_init>
20103692:	64a5                	lui	s1,0x9
20103694:	60048513          	addi	a0,s1,1536 # 9600 <_data_lma+0x3200>
20103698:	841ff0ef          	jal	ra,20102ed8 <sensor_gps_init>
2010369c:	60048593          	addi	a1,s1,1536
201036a0:	20106537          	lui	a0,0x20106
201036a4:	f7850513          	addi	a0,a0,-136 # 20105f78 <g_font_6x8+0x488>
201036a8:	3df000ef          	jal	ra,20104286 <iprintf>
201036ac:	bbffe0ef          	jal	ra,2010226a <oled_init>
201036b0:	4699                	li	a3,6
201036b2:	20106637          	lui	a2,0x20106
201036b6:	fb060613          	addi	a2,a2,-80 # 20105fb0 <g_font_6x8+0x4c0>
201036ba:	4581                	li	a1,0
201036bc:	4501                	li	a0,0
201036be:	d2bfe0ef          	jal	ra,201023e8 <oled_show_string>
201036c2:	4699                	li	a3,6
201036c4:	20106637          	lui	a2,0x20106
201036c8:	fc060613          	addi	a2,a2,-64 # 20105fc0 <g_font_6x8+0x4d0>
201036cc:	45a1                	li	a1,8
201036ce:	4501                	li	a0,0
201036d0:	d19fe0ef          	jal	ra,201023e8 <oled_show_string>
201036d4:	b63fe0ef          	jal	ra,20102236 <oled_refresh>
201036d8:	20106537          	lui	a0,0x20106
201036dc:	fd050513          	addi	a0,a0,-48 # 20105fd0 <g_font_6x8+0x4e0>
201036e0:	4e7000ef          	jal	ra,201043c6 <puts>
201036e4:	06000613          	li	a2,96
201036e8:	4581                	li	a1,0
201036ea:	1808                	addi	a0,sp,48
201036ec:	bdffc0ef          	jal	ra,201002ca <memset>
201036f0:	40000593          	li	a1,1024
201036f4:	40011537          	lui	a0,0x40011
201036f8:	9acfd0ef          	jal	ra,201008a4 <GPIO_ReadInputDataBit>
201036fc:	28b01593          	bseti	a1,zero,0xb
20103700:	40011537          	lui	a0,0x40011
20103704:	9a0fd0ef          	jal	ra,201008a4 <GPIO_ReadInputDataBit>
20103708:	8922                	mv	s2,s0
2010370a:	4981                	li	s3,0
2010370c:	4a01                	li	s4,0
2010370e:	4481                	li	s1,0
20103710:	a0b9                	j	2010375e <Hardware+0x190>
20103712:	4585                	li	a1,1
20103714:	40011537          	lui	a0,0x40011
20103718:	c0050513          	addi	a0,a0,-1024 # 40010c00 <_eusrstack+0x1fe90c00>
2010371c:	9a4fd0ef          	jal	ra,201008c0 <GPIO_SetBits>
20103720:	a8b1                	j	2010377c <Hardware+0x1ae>
20103722:	0495                	addi	s1,s1,5
20103724:	c726                	sw	s1,140(sp)
20103726:	180c                	addi	a1,sp,48
20103728:	8522                	mv	a0,s0
2010372a:	2295                	jal	2010388e <ipc_v3f_send_sensor_frame>
2010372c:	0405                	addi	s0,s0,1
2010372e:	4795                	li	a5,5
20103730:	02f46433          	rem	s0,s0,a5
20103734:	0ff47413          	zext.b	s0,s0
20103738:	03200793          	li	a5,50
2010373c:	02f4f7b3          	remu	a5,s1,a5
20103740:	cbdd                	beqz	a5,201037f6 <Hardware+0x228>
20103742:	414487b3          	sub	a5,s1,s4
20103746:	3e700713          	li	a4,999
2010374a:	0cf76863          	bltu	a4,a5,2010381a <Hardware+0x24c>
2010374e:	1008                	addi	a0,sp,32
20103750:	2e85                	jal	20103ac0 <ipc_v3f_recv_control>
20103752:	02015503          	lhu	a0,32(sp)
20103756:	3e700793          	li	a5,999
2010375a:	0ca7e663          	bltu	a5,a0,20103826 <Hardware+0x258>
2010375e:	4585                	li	a1,1
20103760:	40011537          	lui	a0,0x40011
20103764:	c0050513          	addi	a0,a0,-1024 # 40010c00 <_eusrstack+0x1fe90c00>
20103768:	94afd0ef          	jal	ra,201008b2 <GPIO_ReadOutputDataBit>
2010376c:	d15d                	beqz	a0,20103712 <Hardware+0x144>
2010376e:	4585                	li	a1,1
20103770:	40011537          	lui	a0,0x40011
20103774:	c0050513          	addi	a0,a0,-1024 # 40010c00 <_eusrstack+0x1fe90c00>
20103778:	94cfd0ef          	jal	ra,201008c4 <GPIO_ResetBits>
2010377c:	887ff0ef          	jal	ra,20103002 <sensor_gps_poll>
20103780:	27418513          	addi	a0,gp,628 # 20110c54 <g_gps>
20103784:	9afff0ef          	jal	ra,20103132 <sensor_gps_get_data>
20103788:	dd49                	beqz	a0,20103722 <Hardware+0x154>
2010378a:	27418513          	addi	a0,gp,628 # 20110c54 <g_gps>
2010378e:	290c                	lbu	a1,16(a0)
20103790:	06b10323          	sb	a1,102(sp)
20103794:	3910                	lbu	a2,17(a0)
20103796:	06c103a3          	sb	a2,103(sp)
2010379a:	293c                	lbu	a5,18(a0)
2010379c:	06f10423          	sb	a5,104(sp)
201037a0:	3934                	lbu	a3,19(a0)
201037a2:	06d104a3          	sb	a3,105(sp)
201037a6:	295c                	lbu	a5,20(a0)
201037a8:	06f10523          	sb	a5,106(sp)
201037ac:	4d18                	lw	a4,24(a0)
201037ae:	d6ba                	sw	a4,108(sp)
201037b0:	4d5c                	lw	a5,28(a0)
201037b2:	d8be                	sw	a5,112(sp)
201037b4:	02052803          	lw	a6,32(a0)
201037b8:	dac2                	sw	a6,116(sp)
201037ba:	02855883          	lhu	a7,40(a0)
201037be:	07111c23          	sh	a7,120(sp)
201037c2:	03052883          	lw	a7,48(a0)
201037c6:	dec6                	sw	a7,124(sp)
201037c8:	394a                	lhu	a0,52(a0)
201037ca:	08a11023          	sh	a0,128(sp)
201037ce:	0985                	addi	s3,s3,1
201037d0:	434d                	li	t1,19
201037d2:	f53378e3          	bgeu	t1,s3,20103722 <Hardware+0x154>
201037d6:	06400313          	li	t1,100
201037da:	02657e33          	remu	t3,a0,t1
201037de:	c272                	sw	t3,4(sp)
201037e0:	02655533          	divu	a0,a0,t1
201037e4:	c02a                	sw	a0,0(sp)
201037e6:	20106537          	lui	a0,0x20106
201037ea:	01050513          	addi	a0,a0,16 # 20106010 <g_font_6x8+0x520>
201037ee:	299000ef          	jal	ra,20104286 <iprintf>
201037f2:	4981                	li	s3,0
201037f4:	b73d                	j	20103722 <Hardware+0x154>
201037f6:	00590513          	addi	a0,s2,5
201037fa:	180c                	addi	a1,sp,48
201037fc:	0ff57513          	zext.b	a0,a0
20103800:	2079                	jal	2010388e <ipc_v3f_send_sensor_frame>
20103802:	0905                	addi	s2,s2,1
20103804:	41f95793          	srai	a5,s2,0x1f
20103808:	83f9                	srli	a5,a5,0x1e
2010380a:	993e                	add	s2,s2,a5
2010380c:	00397913          	andi	s2,s2,3
20103810:	40f90933          	sub	s2,s2,a5
20103814:	0ff97913          	zext.b	s2,s2
20103818:	b72d                	j	20103742 <Hardware+0x174>
2010381a:	27418513          	addi	a0,gp,628 # 20110c54 <g_gps>
2010381e:	c0bff0ef          	jal	ra,20103428 <oled_show_gps_page>
20103822:	8a26                	mv	s4,s1
20103824:	b72d                	j	2010374e <Hardware+0x180>
20103826:	02615683          	lhu	a3,38(sp)
2010382a:	02415603          	lhu	a2,36(sp)
2010382e:	02215583          	lhu	a1,34(sp)
20103832:	e72fe0ef          	jal	ra,20101ea4 <bsp_esc_pwm_set_all>
20103836:	b725                	j	2010375e <Hardware+0x190>

20103838 <ipc_comm_init>:
20103838:	a4dfc2ef          	jal	t0,20100284 <__riscv_save_0>
2010383c:	1101                	addi	sp,sp,-32
2010383e:	d5cfd0ef          	jal	ra,20100d9a <HSEM_ReleaseAllSem>
20103842:	0028                	addi	a0,sp,8
20103844:	f7afd0ef          	jal	ra,20100fbe <IPC_StructInit>
20103848:	c402                	sw	zero,8(sp)
2010384a:	c602                	sw	zero,12(sp)
2010384c:	4405                	li	s0,1
2010384e:	c822                	sw	s0,16(sp)
20103850:	ca02                	sw	zero,20(sp)
20103852:	cc02                	sw	zero,24(sp)
20103854:	ce02                	sw	zero,28(sp)
20103856:	0028                	addi	a0,sp,8
20103858:	f16fd0ef          	jal	ra,20100f6e <IPC_Init>
2010385c:	f7cfd0ef          	jal	ra,20100fd8 <IPC_CH0_Lock>
20103860:	0028                	addi	a0,sp,8
20103862:	f5cfd0ef          	jal	ra,20100fbe <IPC_StructInit>
20103866:	c422                	sw	s0,8(sp)
20103868:	c622                	sw	s0,12(sp)
2010386a:	c802                	sw	zero,16(sp)
2010386c:	ca02                	sw	zero,20(sp)
2010386e:	cc02                	sw	zero,24(sp)
20103870:	ce02                	sw	zero,28(sp)
20103872:	0028                	addi	a0,sp,8
20103874:	efafd0ef          	jal	ra,20100f6e <IPC_Init>
20103878:	f6efd0ef          	jal	ra,20100fe6 <IPC_CH1_Lock>
2010387c:	20106537          	lui	a0,0x20106
20103880:	06050513          	addi	a0,a0,96 # 20106060 <g_font_6x8+0x570>
20103884:	343000ef          	jal	ra,201043c6 <puts>
20103888:	6105                	addi	sp,sp,32
2010388a:	a1ffc06f          	j	201002a8 <__riscv_restore_0>

2010388e <ipc_v3f_send_sensor_frame>:
2010388e:	9f7fc2ef          	jal	t0,20100284 <__riscv_save_0>
20103892:	842a                	mv	s0,a0
20103894:	84ae                	mv	s1,a1
20103896:	4501                	li	a0,0
20103898:	cb6fd0ef          	jal	ra,20100d4e <HSEM_FastTake>
2010389c:	4785                	li	a5,1
2010389e:	04f51c63          	bne	a0,a5,201038f6 <ipc_v3f_send_sensor_frame+0x68>
201038a2:	47a1                	li	a5,8
201038a4:	0487e163          	bltu	a5,s0,201038e6 <ipc_v3f_send_sensor_frame+0x58>
201038a8:	201067b7          	lui	a5,0x20106
201038ac:	07878793          	addi	a5,a5,120 # 20106078 <g_font_6x8+0x588>
201038b0:	20f447b3          	sh2add	a5,s0,a5
201038b4:	439c                	lw	a5,0(a5)
201038b6:	8782                	jr	a5
201038b8:	408c                	lw	a1,0(s1)
201038ba:	4501                	li	a0,0
201038bc:	f6efd0ef          	jal	ra,2010102a <IPC_WriteMSG>
201038c0:	40cc                	lw	a1,4(s1)
201038c2:	4505                	li	a0,1
201038c4:	f66fd0ef          	jal	ra,2010102a <IPC_WriteMSG>
201038c8:	448c                	lw	a1,8(s1)
201038ca:	4509                	li	a0,2
201038cc:	f5efd0ef          	jal	ra,2010102a <IPC_WriteMSG>
201038d0:	4cfc                	lw	a5,92(s1)
201038d2:	01000737          	lui	a4,0x1000
201038d6:	177d                	addi	a4,a4,-1 # ffffff <_data_lma+0xff9bff>
201038d8:	8ff9                	and	a5,a5,a4
201038da:	01841593          	slli	a1,s0,0x18
201038de:	8ddd                	or	a1,a1,a5
201038e0:	450d                	li	a0,3
201038e2:	f48fd0ef          	jal	ra,2010102a <IPC_WriteMSG>
201038e6:	4581                	li	a1,0
201038e8:	4501                	li	a0,0
201038ea:	f20fd0ef          	jal	ra,2010100a <IPC_SetFlagStatus>
201038ee:	4585                	li	a1,1
201038f0:	4501                	li	a0,0
201038f2:	c88fd0ef          	jal	ra,20100d7a <HSEM_ReleaseOneSem>
201038f6:	9b3fc06f          	j	201002a8 <__riscv_restore_0>
201038fa:	44cc                	lw	a1,12(s1)
201038fc:	4501                	li	a0,0
201038fe:	f2cfd0ef          	jal	ra,2010102a <IPC_WriteMSG>
20103902:	488c                	lw	a1,16(s1)
20103904:	4505                	li	a0,1
20103906:	f24fd0ef          	jal	ra,2010102a <IPC_WriteMSG>
2010390a:	48cc                	lw	a1,20(s1)
2010390c:	4509                	li	a0,2
2010390e:	f1cfd0ef          	jal	ra,2010102a <IPC_WriteMSG>
20103912:	4cfc                	lw	a5,92(s1)
20103914:	01000737          	lui	a4,0x1000
20103918:	177d                	addi	a4,a4,-1 # ffffff <_data_lma+0xff9bff>
2010391a:	8ff9                	and	a5,a5,a4
2010391c:	01841593          	slli	a1,s0,0x18
20103920:	8ddd                	or	a1,a1,a5
20103922:	450d                	li	a0,3
20103924:	f06fd0ef          	jal	ra,2010102a <IPC_WriteMSG>
20103928:	bf7d                	j	201038e6 <ipc_v3f_send_sensor_frame+0x58>
2010392a:	4c8c                	lw	a1,24(s1)
2010392c:	4501                	li	a0,0
2010392e:	efcfd0ef          	jal	ra,2010102a <IPC_WriteMSG>
20103932:	4ccc                	lw	a1,28(s1)
20103934:	4505                	li	a0,1
20103936:	ef4fd0ef          	jal	ra,2010102a <IPC_WriteMSG>
2010393a:	508c                	lw	a1,32(s1)
2010393c:	4509                	li	a0,2
2010393e:	eecfd0ef          	jal	ra,2010102a <IPC_WriteMSG>
20103942:	4cfc                	lw	a5,92(s1)
20103944:	01000737          	lui	a4,0x1000
20103948:	177d                	addi	a4,a4,-1 # ffffff <_data_lma+0xff9bff>
2010394a:	8ff9                	and	a5,a5,a4
2010394c:	01841593          	slli	a1,s0,0x18
20103950:	8ddd                	or	a1,a1,a5
20103952:	450d                	li	a0,3
20103954:	ed6fd0ef          	jal	ra,2010102a <IPC_WriteMSG>
20103958:	b779                	j	201038e6 <ipc_v3f_send_sensor_frame+0x58>
2010395a:	50cc                	lw	a1,36(s1)
2010395c:	4501                	li	a0,0
2010395e:	eccfd0ef          	jal	ra,2010102a <IPC_WriteMSG>
20103962:	0284c583          	lbu	a1,40(s1)
20103966:	4505                	li	a0,1
20103968:	ec2fd0ef          	jal	ra,2010102a <IPC_WriteMSG>
2010396c:	4581                	li	a1,0
2010396e:	4509                	li	a0,2
20103970:	ebafd0ef          	jal	ra,2010102a <IPC_WriteMSG>
20103974:	4cfc                	lw	a5,92(s1)
20103976:	01000737          	lui	a4,0x1000
2010397a:	177d                	addi	a4,a4,-1 # ffffff <_data_lma+0xff9bff>
2010397c:	8ff9                	and	a5,a5,a4
2010397e:	01841593          	slli	a1,s0,0x18
20103982:	8ddd                	or	a1,a1,a5
20103984:	450d                	li	a0,3
20103986:	ea4fd0ef          	jal	ra,2010102a <IPC_WriteMSG>
2010398a:	bfb1                	j	201038e6 <ipc_v3f_send_sensor_frame+0x58>
2010398c:	54cc                	lw	a1,44(s1)
2010398e:	4501                	li	a0,0
20103990:	e9afd0ef          	jal	ra,2010102a <IPC_WriteMSG>
20103994:	588c                	lw	a1,48(s1)
20103996:	4505                	li	a0,1
20103998:	e92fd0ef          	jal	ra,2010102a <IPC_WriteMSG>
2010399c:	0344c583          	lbu	a1,52(s1)
201039a0:	0354c783          	lbu	a5,53(s1)
201039a4:	07a2                	slli	a5,a5,0x8
201039a6:	8ddd                	or	a1,a1,a5
201039a8:	4509                	li	a0,2
201039aa:	e80fd0ef          	jal	ra,2010102a <IPC_WriteMSG>
201039ae:	4cfc                	lw	a5,92(s1)
201039b0:	01000737          	lui	a4,0x1000
201039b4:	177d                	addi	a4,a4,-1 # ffffff <_data_lma+0xff9bff>
201039b6:	8ff9                	and	a5,a5,a4
201039b8:	01841593          	slli	a1,s0,0x18
201039bc:	8ddd                	or	a1,a1,a5
201039be:	450d                	li	a0,3
201039c0:	e6afd0ef          	jal	ra,2010102a <IPC_WriteMSG>
201039c4:	b70d                	j	201038e6 <ipc_v3f_send_sensor_frame+0x58>
201039c6:	5ccc                	lw	a1,60(s1)
201039c8:	4501                	li	a0,0
201039ca:	e60fd0ef          	jal	ra,2010102a <IPC_WriteMSG>
201039ce:	40ac                	lw	a1,64(s1)
201039d0:	4505                	li	a0,1
201039d2:	e58fd0ef          	jal	ra,2010102a <IPC_WriteMSG>
201039d6:	40ec                	lw	a1,68(s1)
201039d8:	4509                	li	a0,2
201039da:	e50fd0ef          	jal	ra,2010102a <IPC_WriteMSG>
201039de:	4cfc                	lw	a5,92(s1)
201039e0:	01000737          	lui	a4,0x1000
201039e4:	177d                	addi	a4,a4,-1 # ffffff <_data_lma+0xff9bff>
201039e6:	8ff9                	and	a5,a5,a4
201039e8:	01841593          	slli	a1,s0,0x18
201039ec:	8ddd                	or	a1,a1,a5
201039ee:	450d                	li	a0,3
201039f0:	e3afd0ef          	jal	ra,2010102a <IPC_WriteMSG>
201039f4:	bdcd                	j	201038e6 <ipc_v3f_send_sensor_frame+0x58>
201039f6:	0364c783          	lbu	a5,54(s1)
201039fa:	0374c703          	lbu	a4,55(s1)
201039fe:	0722                	slli	a4,a4,0x8
20103a00:	8fd9                	or	a5,a5,a4
20103a02:	0384c703          	lbu	a4,56(s1)
20103a06:	0742                	slli	a4,a4,0x10
20103a08:	8fd9                	or	a5,a5,a4
20103a0a:	0394c583          	lbu	a1,57(s1)
20103a0e:	05e2                	slli	a1,a1,0x18
20103a10:	8ddd                	or	a1,a1,a5
20103a12:	4501                	li	a0,0
20103a14:	e16fd0ef          	jal	ra,2010102a <IPC_WriteMSG>
20103a18:	03a4c583          	lbu	a1,58(s1)
20103a1c:	0484d783          	lhu	a5,72(s1)
20103a20:	07c2                	slli	a5,a5,0x10
20103a22:	8ddd                	or	a1,a1,a5
20103a24:	4505                	li	a0,1
20103a26:	e04fd0ef          	jal	ra,2010102a <IPC_WriteMSG>
20103a2a:	4581                	li	a1,0
20103a2c:	4509                	li	a0,2
20103a2e:	dfcfd0ef          	jal	ra,2010102a <IPC_WriteMSG>
20103a32:	4cfc                	lw	a5,92(s1)
20103a34:	01000737          	lui	a4,0x1000
20103a38:	177d                	addi	a4,a4,-1 # ffffff <_data_lma+0xff9bff>
20103a3a:	8ff9                	and	a5,a5,a4
20103a3c:	01841593          	slli	a1,s0,0x18
20103a40:	8ddd                	or	a1,a1,a5
20103a42:	450d                	li	a0,3
20103a44:	de6fd0ef          	jal	ra,2010102a <IPC_WriteMSG>
20103a48:	bd79                	j	201038e6 <ipc_v3f_send_sensor_frame+0x58>
20103a4a:	44ec                	lw	a1,76(s1)
20103a4c:	4501                	li	a0,0
20103a4e:	ddcfd0ef          	jal	ra,2010102a <IPC_WriteMSG>
20103a52:	0504d583          	lhu	a1,80(s1)
20103a56:	4505                	li	a0,1
20103a58:	dd2fd0ef          	jal	ra,2010102a <IPC_WriteMSG>
20103a5c:	4581                	li	a1,0
20103a5e:	4509                	li	a0,2
20103a60:	dcafd0ef          	jal	ra,2010102a <IPC_WriteMSG>
20103a64:	4cfc                	lw	a5,92(s1)
20103a66:	01000737          	lui	a4,0x1000
20103a6a:	177d                	addi	a4,a4,-1 # ffffff <_data_lma+0xff9bff>
20103a6c:	8ff9                	and	a5,a5,a4
20103a6e:	01841593          	slli	a1,s0,0x18
20103a72:	8ddd                	or	a1,a1,a5
20103a74:	450d                	li	a0,3
20103a76:	db4fd0ef          	jal	ra,2010102a <IPC_WriteMSG>
20103a7a:	b5b5                	j	201038e6 <ipc_v3f_send_sensor_frame+0x58>
20103a7c:	0524d583          	lhu	a1,82(s1)
20103a80:	0544d783          	lhu	a5,84(s1)
20103a84:	07c2                	slli	a5,a5,0x10
20103a86:	8ddd                	or	a1,a1,a5
20103a88:	4501                	li	a0,0
20103a8a:	da0fd0ef          	jal	ra,2010102a <IPC_WriteMSG>
20103a8e:	0564d583          	lhu	a1,86(s1)
20103a92:	0584d783          	lhu	a5,88(s1)
20103a96:	07c2                	slli	a5,a5,0x10
20103a98:	8ddd                	or	a1,a1,a5
20103a9a:	4505                	li	a0,1
20103a9c:	d8efd0ef          	jal	ra,2010102a <IPC_WriteMSG>
20103aa0:	05a4c583          	lbu	a1,90(s1)
20103aa4:	4509                	li	a0,2
20103aa6:	d84fd0ef          	jal	ra,2010102a <IPC_WriteMSG>
20103aaa:	4cec                	lw	a1,92(s1)
20103aac:	010007b7          	lui	a5,0x1000
20103ab0:	17fd                	addi	a5,a5,-1 # ffffff <_data_lma+0xff9bff>
20103ab2:	8dfd                	and	a1,a1,a5
20103ab4:	0462                	slli	s0,s0,0x18
20103ab6:	8dc1                	or	a1,a1,s0
20103ab8:	450d                	li	a0,3
20103aba:	d70fd0ef          	jal	ra,2010102a <IPC_WriteMSG>
20103abe:	b525                	j	201038e6 <ipc_v3f_send_sensor_frame+0x58>

20103ac0 <ipc_v3f_recv_control>:
20103ac0:	fc4fc2ef          	jal	t0,20100284 <__riscv_save_0>
20103ac4:	842a                	mv	s0,a0
20103ac6:	4581                	li	a1,0
20103ac8:	4505                	li	a0,1
20103aca:	d2afd0ef          	jal	ra,20100ff4 <IPC_GetFlagStatus>
20103ace:	4785                	li	a5,1
20103ad0:	00f50463          	beq	a0,a5,20103ad8 <ipc_v3f_recv_control+0x18>
20103ad4:	fd4fc06f          	j	201002a8 <__riscv_restore_0>
20103ad8:	4501                	li	a0,0
20103ada:	d6efd0ef          	jal	ra,20101048 <IPC_ReadMSG>
20103ade:	892a                	mv	s2,a0
20103ae0:	4505                	li	a0,1
20103ae2:	d66fd0ef          	jal	ra,20101048 <IPC_ReadMSG>
20103ae6:	84aa                	mv	s1,a0
20103ae8:	4509                	li	a0,2
20103aea:	d5efd0ef          	jal	ra,20101048 <IPC_ReadMSG>
20103aee:	01241023          	sh	s2,0(s0)
20103af2:	01095913          	srli	s2,s2,0x10
20103af6:	01241123          	sh	s2,2(s0)
20103afa:	a046                	sh	s1,4(s0)
20103afc:	80c1                	srli	s1,s1,0x10
20103afe:	a066                	sh	s1,6(s0)
20103b00:	a408                	sb	a0,8(s0)
20103b02:	00855793          	srli	a5,a0,0x8
20103b06:	c45c                	sw	a5,12(s0)
20103b08:	4581                	li	a1,0
20103b0a:	4505                	li	a0,1
20103b0c:	d0efd0ef          	jal	ra,2010101a <IPC_ClearFlagStatus>
20103b10:	b7d1                	j	20103ad4 <ipc_v3f_recv_control+0x14>

20103b12 <__divdi3>:
20103b12:	4801                	li	a6,0
20103b14:	0e05c863          	bltz	a1,20103c04 <__divdi3+0xf2>
20103b18:	0006db63          	bgez	a3,20103b2e <__divdi3+0x1c>
20103b1c:	00c037b3          	snez	a5,a2
20103b20:	40d006b3          	neg	a3,a3
20103b24:	fff84813          	not	a6,a6
20103b28:	8e9d                	sub	a3,a3,a5
20103b2a:	40c00633          	neg	a2,a2
20103b2e:	88b2                	mv	a7,a2
20103b30:	872a                	mv	a4,a0
20103b32:	832e                	mv	t1,a1
20103b34:	e2f9                	bnez	a3,20103bfa <__divdi3+0xe8>
20103b36:	12c5f263          	bgeu	a1,a2,20103c5a <__divdi3+0x148>
20103b3a:	67c1                	lui	a5,0x10
20103b3c:	1af66c63          	bltu	a2,a5,20103cf4 <__divdi3+0x1e2>
20103b40:	010007b7          	lui	a5,0x1000
20103b44:	00f637b3          	sltu	a5,a2,a5
20103b48:	40f007b3          	neg	a5,a5
20103b4c:	9be1                	andi	a5,a5,-8
20103b4e:	07e1                	addi	a5,a5,24 # 1000018 <_data_lma+0xff9c18>
20103b50:	00f65e33          	srl	t3,a2,a5
20103b54:	00002697          	auipc	a3,0x2
20103b58:	54868693          	addi	a3,a3,1352 # 2010609c <__clz_tab>
20103b5c:	96f2                	add	a3,a3,t3
20103b5e:	2294                	lbu	a3,0(a3)
20103b60:	02000e13          	li	t3,32
20103b64:	97b6                	add	a5,a5,a3
20103b66:	40fe06b3          	sub	a3,t3,a5
20103b6a:	00fe0c63          	beq	t3,a5,20103b82 <__divdi3+0x70>
20103b6e:	00d59333          	sll	t1,a1,a3
20103b72:	00f557b3          	srl	a5,a0,a5
20103b76:	00d618b3          	sll	a7,a2,a3
20103b7a:	0067e333          	or	t1,a5,t1
20103b7e:	00d51733          	sll	a4,a0,a3
20103b82:	0108d613          	srli	a2,a7,0x10
20103b86:	02c35533          	divu	a0,t1,a2
20103b8a:	0808c6b3          	zext.h	a3,a7
20103b8e:	01075793          	srli	a5,a4,0x10
20103b92:	02c37333          	remu	t1,t1,a2
20103b96:	02a685b3          	mul	a1,a3,a0
20103b9a:	0342                	slli	t1,t1,0x10
20103b9c:	0067e7b3          	or	a5,a5,t1
20103ba0:	00b7fa63          	bgeu	a5,a1,20103bb4 <__divdi3+0xa2>
20103ba4:	97c6                	add	a5,a5,a7
20103ba6:	fff50313          	addi	t1,a0,-1
20103baa:	0117e463          	bltu	a5,a7,20103bb2 <__divdi3+0xa0>
20103bae:	32b7e863          	bltu	a5,a1,20103ede <__divdi3+0x3cc>
20103bb2:	851a                	mv	a0,t1
20103bb4:	8f8d                	sub	a5,a5,a1
20103bb6:	02c7d5b3          	divu	a1,a5,a2
20103bba:	08074733          	zext.h	a4,a4
20103bbe:	02c7f7b3          	remu	a5,a5,a2
20103bc2:	02b686b3          	mul	a3,a3,a1
20103bc6:	07c2                	slli	a5,a5,0x10
20103bc8:	8f5d                	or	a4,a4,a5
20103bca:	00d77b63          	bgeu	a4,a3,20103be0 <__divdi3+0xce>
20103bce:	9746                	add	a4,a4,a7
20103bd0:	fff58793          	addi	a5,a1,-1
20103bd4:	01176563          	bltu	a4,a7,20103bde <__divdi3+0xcc>
20103bd8:	15f9                	addi	a1,a1,-2
20103bda:	00d76363          	bltu	a4,a3,20103be0 <__divdi3+0xce>
20103bde:	85be                	mv	a1,a5
20103be0:	0542                	slli	a0,a0,0x10
20103be2:	8d4d                	or	a0,a0,a1
20103be4:	4581                	li	a1,0
20103be6:	00080963          	beqz	a6,20103bf8 <__divdi3+0xe6>
20103bea:	00a037b3          	snez	a5,a0
20103bee:	40b005b3          	neg	a1,a1
20103bf2:	8d9d                	sub	a1,a1,a5
20103bf4:	40a00533          	neg	a0,a0
20103bf8:	8082                	ret
20103bfa:	00d5fe63          	bgeu	a1,a3,20103c16 <__divdi3+0x104>
20103bfe:	4581                	li	a1,0
20103c00:	4501                	li	a0,0
20103c02:	b7d5                	j	20103be6 <__divdi3+0xd4>
20103c04:	00a037b3          	snez	a5,a0
20103c08:	40b005b3          	neg	a1,a1
20103c0c:	8d9d                	sub	a1,a1,a5
20103c0e:	40a00533          	neg	a0,a0
20103c12:	587d                	li	a6,-1
20103c14:	b711                	j	20103b18 <__divdi3+0x6>
20103c16:	67c1                	lui	a5,0x10
20103c18:	18f6e463          	bltu	a3,a5,20103da0 <__divdi3+0x28e>
20103c1c:	010007b7          	lui	a5,0x1000
20103c20:	00f6b7b3          	sltu	a5,a3,a5
20103c24:	40f007b3          	neg	a5,a5
20103c28:	9be1                	andi	a5,a5,-8
20103c2a:	07e1                	addi	a5,a5,24 # 1000018 <_data_lma+0xff9c18>
20103c2c:	00f6d8b3          	srl	a7,a3,a5
20103c30:	00002717          	auipc	a4,0x2
20103c34:	46c70713          	addi	a4,a4,1132 # 2010609c <__clz_tab>
20103c38:	9746                	add	a4,a4,a7
20103c3a:	2318                	lbu	a4,0(a4)
20103c3c:	02000313          	li	t1,32
20103c40:	973e                	add	a4,a4,a5
20103c42:	40e308b3          	sub	a7,t1,a4
20103c46:	18e31163          	bne	t1,a4,20103dc8 <__divdi3+0x2b6>
20103c4a:	26b6ec63          	bltu	a3,a1,20103ec2 <__divdi3+0x3b0>
20103c4e:	00c53533          	sltu	a0,a0,a2
20103c52:	00154513          	xori	a0,a0,1
20103c56:	4581                	li	a1,0
20103c58:	b779                	j	20103be6 <__divdi3+0xd4>
20103c5a:	c25d                	beqz	a2,20103d00 <__divdi3+0x1ee>
20103c5c:	67c1                	lui	a5,0x10
20103c5e:	24f67a63          	bgeu	a2,a5,20103eb2 <__divdi3+0x3a0>
20103c62:	10063313          	sltiu	t1,a2,256
20103c66:	00134313          	xori	t1,t1,1
20103c6a:	030e                	slli	t1,t1,0x3
20103c6c:	006656b3          	srl	a3,a2,t1
20103c70:	00002797          	auipc	a5,0x2
20103c74:	42c78793          	addi	a5,a5,1068 # 2010609c <__clz_tab>
20103c78:	97b6                	add	a5,a5,a3
20103c7a:	2394                	lbu	a3,0(a5)
20103c7c:	02000793          	li	a5,32
20103c80:	969a                	add	a3,a3,t1
20103c82:	40d78eb3          	sub	t4,a5,a3
20103c86:	08d79c63          	bne	a5,a3,20103d1e <__divdi3+0x20c>
20103c8a:	40c586b3          	sub	a3,a1,a2
20103c8e:	4585                	li	a1,1
20103c90:	01065313          	srli	t1,a2,0x10
20103c94:	08064633          	zext.h	a2,a2
20103c98:	0266d533          	divu	a0,a3,t1
20103c9c:	01075793          	srli	a5,a4,0x10
20103ca0:	0266f6b3          	remu	a3,a3,t1
20103ca4:	02c50e33          	mul	t3,a0,a2
20103ca8:	06c2                	slli	a3,a3,0x10
20103caa:	8fd5                	or	a5,a5,a3
20103cac:	01c7fa63          	bgeu	a5,t3,20103cc0 <__divdi3+0x1ae>
20103cb0:	97c6                	add	a5,a5,a7
20103cb2:	fff50693          	addi	a3,a0,-1
20103cb6:	0117e463          	bltu	a5,a7,20103cbe <__divdi3+0x1ac>
20103cba:	21c7ef63          	bltu	a5,t3,20103ed8 <__divdi3+0x3c6>
20103cbe:	8536                	mv	a0,a3
20103cc0:	41c787b3          	sub	a5,a5,t3
20103cc4:	0267d6b3          	divu	a3,a5,t1
20103cc8:	08074733          	zext.h	a4,a4
20103ccc:	0267f7b3          	remu	a5,a5,t1
20103cd0:	02c68633          	mul	a2,a3,a2
20103cd4:	07c2                	slli	a5,a5,0x10
20103cd6:	8f5d                	or	a4,a4,a5
20103cd8:	00c77b63          	bgeu	a4,a2,20103cee <__divdi3+0x1dc>
20103cdc:	9746                	add	a4,a4,a7
20103cde:	fff68793          	addi	a5,a3,-1
20103ce2:	01176563          	bltu	a4,a7,20103cec <__divdi3+0x1da>
20103ce6:	16f9                	addi	a3,a3,-2
20103ce8:	00c76363          	bltu	a4,a2,20103cee <__divdi3+0x1dc>
20103cec:	86be                	mv	a3,a5
20103cee:	0542                	slli	a0,a0,0x10
20103cf0:	8d55                	or	a0,a0,a3
20103cf2:	bdd5                	j	20103be6 <__divdi3+0xd4>
20103cf4:	10063793          	sltiu	a5,a2,256
20103cf8:	0017c793          	xori	a5,a5,1
20103cfc:	078e                	slli	a5,a5,0x3
20103cfe:	bd89                	j	20103b50 <__divdi3+0x3e>
20103d00:	4681                	li	a3,0
20103d02:	00002797          	auipc	a5,0x2
20103d06:	39a78793          	addi	a5,a5,922 # 2010609c <__clz_tab>
20103d0a:	97b6                	add	a5,a5,a3
20103d0c:	2394                	lbu	a3,0(a5)
20103d0e:	4301                	li	t1,0
20103d10:	02000793          	li	a5,32
20103d14:	969a                	add	a3,a3,t1
20103d16:	40d78eb3          	sub	t4,a5,a3
20103d1a:	f6d788e3          	beq	a5,a3,20103c8a <__divdi3+0x178>
20103d1e:	01d618b3          	sll	a7,a2,t4
20103d22:	00d5de33          	srl	t3,a1,a3
20103d26:	0108d313          	srli	t1,a7,0x10
20103d2a:	026e57b3          	divu	a5,t3,t1
20103d2e:	00d556b3          	srl	a3,a0,a3
20103d32:	01d51733          	sll	a4,a0,t4
20103d36:	0808c633          	zext.h	a2,a7
20103d3a:	01d595b3          	sll	a1,a1,t4
20103d3e:	8ecd                	or	a3,a3,a1
20103d40:	0106d593          	srli	a1,a3,0x10
20103d44:	026e7e33          	remu	t3,t3,t1
20103d48:	02f60533          	mul	a0,a2,a5
20103d4c:	0e42                	slli	t3,t3,0x10
20103d4e:	01c5e5b3          	or	a1,a1,t3
20103d52:	00a5fb63          	bgeu	a1,a0,20103d68 <__divdi3+0x256>
20103d56:	95c6                	add	a1,a1,a7
20103d58:	fff78e13          	addi	t3,a5,-1
20103d5c:	1715ea63          	bltu	a1,a7,20103ed0 <__divdi3+0x3be>
20103d60:	16a5f863          	bgeu	a1,a0,20103ed0 <__divdi3+0x3be>
20103d64:	17f9                	addi	a5,a5,-2
20103d66:	95c6                	add	a1,a1,a7
20103d68:	8d89                	sub	a1,a1,a0
20103d6a:	0265d533          	divu	a0,a1,t1
20103d6e:	0806c6b3          	zext.h	a3,a3
20103d72:	0265f5b3          	remu	a1,a1,t1
20103d76:	02a60e33          	mul	t3,a2,a0
20103d7a:	05c2                	slli	a1,a1,0x10
20103d7c:	8ecd                	or	a3,a3,a1
20103d7e:	01c6fb63          	bgeu	a3,t3,20103d94 <__divdi3+0x282>
20103d82:	96c6                	add	a3,a3,a7
20103d84:	fff50593          	addi	a1,a0,-1
20103d88:	1516e063          	bltu	a3,a7,20103ec8 <__divdi3+0x3b6>
20103d8c:	13c6fe63          	bgeu	a3,t3,20103ec8 <__divdi3+0x3b6>
20103d90:	1579                	addi	a0,a0,-2
20103d92:	96c6                	add	a3,a3,a7
20103d94:	01079593          	slli	a1,a5,0x10
20103d98:	41c686b3          	sub	a3,a3,t3
20103d9c:	8dc9                	or	a1,a1,a0
20103d9e:	bded                	j	20103c98 <__divdi3+0x186>
20103da0:	1006b793          	sltiu	a5,a3,256
20103da4:	0017c793          	xori	a5,a5,1
20103da8:	078e                	slli	a5,a5,0x3
20103daa:	00f6d8b3          	srl	a7,a3,a5
20103dae:	00002717          	auipc	a4,0x2
20103db2:	2ee70713          	addi	a4,a4,750 # 2010609c <__clz_tab>
20103db6:	9746                	add	a4,a4,a7
20103db8:	2318                	lbu	a4,0(a4)
20103dba:	02000313          	li	t1,32
20103dbe:	973e                	add	a4,a4,a5
20103dc0:	40e308b3          	sub	a7,t1,a4
20103dc4:	e8e303e3          	beq	t1,a4,20103c4a <__divdi3+0x138>
20103dc8:	00e65eb3          	srl	t4,a2,a4
20103dcc:	011696b3          	sll	a3,a3,a7
20103dd0:	00deeeb3          	or	t4,t4,a3
20103dd4:	00e5d333          	srl	t1,a1,a4
20103dd8:	010edf13          	srli	t5,t4,0x10
20103ddc:	03e357b3          	divu	a5,t1,t5
20103de0:	011595b3          	sll	a1,a1,a7
20103de4:	00e55733          	srl	a4,a0,a4
20103de8:	8f4d                	or	a4,a4,a1
20103dea:	080ece33          	zext.h	t3,t4
20103dee:	01075693          	srli	a3,a4,0x10
20103df2:	01161633          	sll	a2,a2,a7
20103df6:	03e37333          	remu	t1,t1,t5
20103dfa:	02fe05b3          	mul	a1,t3,a5
20103dfe:	0342                	slli	t1,t1,0x10
20103e00:	0066e6b3          	or	a3,a3,t1
20103e04:	00b6fb63          	bgeu	a3,a1,20103e1a <__divdi3+0x308>
20103e08:	96f6                	add	a3,a3,t4
20103e0a:	fff78313          	addi	t1,a5,-1
20103e0e:	0dd6e363          	bltu	a3,t4,20103ed4 <__divdi3+0x3c2>
20103e12:	0cb6f163          	bgeu	a3,a1,20103ed4 <__divdi3+0x3c2>
20103e16:	17f9                	addi	a5,a5,-2
20103e18:	96f6                	add	a3,a3,t4
20103e1a:	8e8d                	sub	a3,a3,a1
20103e1c:	03e6d5b3          	divu	a1,a3,t5
20103e20:	08074733          	zext.h	a4,a4
20103e24:	03e6f6b3          	remu	a3,a3,t5
20103e28:	02be0333          	mul	t1,t3,a1
20103e2c:	06c2                	slli	a3,a3,0x10
20103e2e:	8f55                	or	a4,a4,a3
20103e30:	00677b63          	bgeu	a4,t1,20103e46 <__divdi3+0x334>
20103e34:	9776                	add	a4,a4,t4
20103e36:	fff58693          	addi	a3,a1,-1
20103e3a:	09d76963          	bltu	a4,t4,20103ecc <__divdi3+0x3ba>
20103e3e:	08677763          	bgeu	a4,t1,20103ecc <__divdi3+0x3ba>
20103e42:	15f9                	addi	a1,a1,-2
20103e44:	9776                	add	a4,a4,t4
20103e46:	07c2                	slli	a5,a5,0x10
20103e48:	6f41                	lui	t5,0x10
20103e4a:	8fcd                	or	a5,a5,a1
20103e4c:	ffff0693          	addi	a3,t5,-1 # ffff <_data_lma+0x9bff>
20103e50:	00d7f5b3          	and	a1,a5,a3
20103e54:	0107de13          	srli	t3,a5,0x10
20103e58:	8ef1                	and	a3,a3,a2
20103e5a:	8241                	srli	a2,a2,0x10
20103e5c:	02d58eb3          	mul	t4,a1,a3
20103e60:	40670733          	sub	a4,a4,t1
20103e64:	02de06b3          	mul	a3,t3,a3
20103e68:	010ed313          	srli	t1,t4,0x10
20103e6c:	02c585b3          	mul	a1,a1,a2
20103e70:	95b6                	add	a1,a1,a3
20103e72:	959a                	add	a1,a1,t1
20103e74:	02ce0e33          	mul	t3,t3,a2
20103e78:	00d5f363          	bgeu	a1,a3,20103e7e <__divdi3+0x36c>
20103e7c:	9e7a                	add	t3,t3,t5
20103e7e:	0105d693          	srli	a3,a1,0x10
20103e82:	96f2                	add	a3,a3,t3
20103e84:	02d76363          	bltu	a4,a3,20103eaa <__divdi3+0x398>
20103e88:	00d70563          	beq	a4,a3,20103e92 <__divdi3+0x380>
20103e8c:	853e                	mv	a0,a5
20103e8e:	4581                	li	a1,0
20103e90:	bb99                	j	20103be6 <__divdi3+0xd4>
20103e92:	66c1                	lui	a3,0x10
20103e94:	16fd                	addi	a3,a3,-1 # ffff <_data_lma+0x9bff>
20103e96:	00d5f733          	and	a4,a1,a3
20103e9a:	0742                	slli	a4,a4,0x10
20103e9c:	00defeb3          	and	t4,t4,a3
20103ea0:	01151533          	sll	a0,a0,a7
20103ea4:	9776                	add	a4,a4,t4
20103ea6:	fee573e3          	bgeu	a0,a4,20103e8c <__divdi3+0x37a>
20103eaa:	fff78513          	addi	a0,a5,-1
20103eae:	4581                	li	a1,0
20103eb0:	bb1d                	j	20103be6 <__divdi3+0xd4>
20103eb2:	010007b7          	lui	a5,0x1000
20103eb6:	02f67763          	bgeu	a2,a5,20103ee4 <__divdi3+0x3d2>
20103eba:	01065693          	srli	a3,a2,0x10
20103ebe:	4341                	li	t1,16
20103ec0:	bb45                	j	20103c70 <__divdi3+0x15e>
20103ec2:	4581                	li	a1,0
20103ec4:	4505                	li	a0,1
20103ec6:	b305                	j	20103be6 <__divdi3+0xd4>
20103ec8:	852e                	mv	a0,a1
20103eca:	b5e9                	j	20103d94 <__divdi3+0x282>
20103ecc:	85b6                	mv	a1,a3
20103ece:	bfa5                	j	20103e46 <__divdi3+0x334>
20103ed0:	87f2                	mv	a5,t3
20103ed2:	bd59                	j	20103d68 <__divdi3+0x256>
20103ed4:	879a                	mv	a5,t1
20103ed6:	b791                	j	20103e1a <__divdi3+0x308>
20103ed8:	1579                	addi	a0,a0,-2
20103eda:	97c6                	add	a5,a5,a7
20103edc:	b3d5                	j	20103cc0 <__divdi3+0x1ae>
20103ede:	1579                	addi	a0,a0,-2
20103ee0:	97c6                	add	a5,a5,a7
20103ee2:	b9c9                	j	20103bb4 <__divdi3+0xa2>
20103ee4:	01865693          	srli	a3,a2,0x18
20103ee8:	4361                	li	t1,24
20103eea:	b359                	j	20103c70 <__divdi3+0x15e>

20103eec <__udivdi3>:
20103eec:	8832                	mv	a6,a2
20103eee:	88aa                	mv	a7,a0
20103ef0:	872e                	mv	a4,a1
20103ef2:	eacd                	bnez	a3,20103fa4 <__udivdi3+0xb8>
20103ef4:	0ec5ff63          	bgeu	a1,a2,20103ff2 <__udivdi3+0x106>
20103ef8:	67c1                	lui	a5,0x10
20103efa:	18f66a63          	bltu	a2,a5,2010408e <__udivdi3+0x1a2>
20103efe:	010007b7          	lui	a5,0x1000
20103f02:	00f637b3          	sltu	a5,a2,a5
20103f06:	40f007b3          	neg	a5,a5
20103f0a:	9be1                	andi	a5,a5,-8
20103f0c:	07e1                	addi	a5,a5,24 # 1000018 <_data_lma+0xff9c18>
20103f0e:	00f65333          	srl	t1,a2,a5
20103f12:	00002697          	auipc	a3,0x2
20103f16:	18a68693          	addi	a3,a3,394 # 2010609c <__clz_tab>
20103f1a:	969a                	add	a3,a3,t1
20103f1c:	2294                	lbu	a3,0(a3)
20103f1e:	02000313          	li	t1,32
20103f22:	97b6                	add	a5,a5,a3
20103f24:	40f306b3          	sub	a3,t1,a5
20103f28:	00f30b63          	beq	t1,a5,20103f3e <__udivdi3+0x52>
20103f2c:	00d59733          	sll	a4,a1,a3
20103f30:	00f557b3          	srl	a5,a0,a5
20103f34:	00d61833          	sll	a6,a2,a3
20103f38:	8f5d                	or	a4,a4,a5
20103f3a:	00d518b3          	sll	a7,a0,a3
20103f3e:	01085613          	srli	a2,a6,0x10
20103f42:	02c75533          	divu	a0,a4,a2
20103f46:	080846b3          	zext.h	a3,a6
20103f4a:	0108d793          	srli	a5,a7,0x10
20103f4e:	02c77733          	remu	a4,a4,a2
20103f52:	02a685b3          	mul	a1,a3,a0
20103f56:	0742                	slli	a4,a4,0x10
20103f58:	8fd9                	or	a5,a5,a4
20103f5a:	00b7fa63          	bgeu	a5,a1,20103f6e <__udivdi3+0x82>
20103f5e:	97c2                	add	a5,a5,a6
20103f60:	fff50713          	addi	a4,a0,-1
20103f64:	0107e463          	bltu	a5,a6,20103f6c <__udivdi3+0x80>
20103f68:	30b7e863          	bltu	a5,a1,20104278 <__udivdi3+0x38c>
20103f6c:	853a                	mv	a0,a4
20103f6e:	8f8d                	sub	a5,a5,a1
20103f70:	02c7d733          	divu	a4,a5,a2
20103f74:	0808c8b3          	zext.h	a7,a7
20103f78:	02c7f7b3          	remu	a5,a5,a2
20103f7c:	02e686b3          	mul	a3,a3,a4
20103f80:	07c2                	slli	a5,a5,0x10
20103f82:	00f8e8b3          	or	a7,a7,a5
20103f86:	00d8fb63          	bgeu	a7,a3,20103f9c <__udivdi3+0xb0>
20103f8a:	98c2                	add	a7,a7,a6
20103f8c:	fff70793          	addi	a5,a4,-1
20103f90:	0108e563          	bltu	a7,a6,20103f9a <__udivdi3+0xae>
20103f94:	1779                	addi	a4,a4,-2
20103f96:	00d8e363          	bltu	a7,a3,20103f9c <__udivdi3+0xb0>
20103f9a:	873e                	mv	a4,a5
20103f9c:	0542                	slli	a0,a0,0x10
20103f9e:	8d59                	or	a0,a0,a4
20103fa0:	4581                	li	a1,0
20103fa2:	8082                	ret
20103fa4:	00d5f563          	bgeu	a1,a3,20103fae <__udivdi3+0xc2>
20103fa8:	4581                	li	a1,0
20103faa:	4501                	li	a0,0
20103fac:	8082                	ret
20103fae:	67c1                	lui	a5,0x10
20103fb0:	18f6e563          	bltu	a3,a5,2010413a <__udivdi3+0x24e>
20103fb4:	010007b7          	lui	a5,0x1000
20103fb8:	00f6b7b3          	sltu	a5,a3,a5
20103fbc:	40f007b3          	neg	a5,a5
20103fc0:	9be1                	andi	a5,a5,-8
20103fc2:	07e1                	addi	a5,a5,24 # 1000018 <_data_lma+0xff9c18>
20103fc4:	00f6d833          	srl	a6,a3,a5
20103fc8:	00002717          	auipc	a4,0x2
20103fcc:	0d470713          	addi	a4,a4,212 # 2010609c <__clz_tab>
20103fd0:	9742                	add	a4,a4,a6
20103fd2:	2318                	lbu	a4,0(a4)
20103fd4:	02000893          	li	a7,32
20103fd8:	973e                	add	a4,a4,a5
20103fda:	40e88833          	sub	a6,a7,a4
20103fde:	18e89263          	bne	a7,a4,20104162 <__udivdi3+0x276>
20103fe2:	26b6ed63          	bltu	a3,a1,2010425c <__udivdi3+0x370>
20103fe6:	00c53533          	sltu	a0,a0,a2
20103fea:	00154513          	xori	a0,a0,1
20103fee:	4581                	li	a1,0
20103ff0:	8082                	ret
20103ff2:	c645                	beqz	a2,2010409a <__udivdi3+0x1ae>
20103ff4:	67c1                	lui	a5,0x10
20103ff6:	24f67b63          	bgeu	a2,a5,2010424c <__udivdi3+0x360>
20103ffa:	10063713          	sltiu	a4,a2,256
20103ffe:	00174713          	xori	a4,a4,1
20104002:	070e                	slli	a4,a4,0x3
20104004:	00e656b3          	srl	a3,a2,a4
20104008:	00002797          	auipc	a5,0x2
2010400c:	09478793          	addi	a5,a5,148 # 2010609c <__clz_tab>
20104010:	97b6                	add	a5,a5,a3
20104012:	239c                	lbu	a5,0(a5)
20104014:	02000693          	li	a3,32
20104018:	97ba                	add	a5,a5,a4
2010401a:	40f68eb3          	sub	t4,a3,a5
2010401e:	08f69d63          	bne	a3,a5,201040b8 <__udivdi3+0x1cc>
20104022:	40c587b3          	sub	a5,a1,a2
20104026:	4585                	li	a1,1
20104028:	01065693          	srli	a3,a2,0x10
2010402c:	08064633          	zext.h	a2,a2
20104030:	02d7d533          	divu	a0,a5,a3
20104034:	0108d713          	srli	a4,a7,0x10
20104038:	02d7f7b3          	remu	a5,a5,a3
2010403c:	02c50333          	mul	t1,a0,a2
20104040:	07c2                	slli	a5,a5,0x10
20104042:	8fd9                	or	a5,a5,a4
20104044:	0067fa63          	bgeu	a5,t1,20104058 <__udivdi3+0x16c>
20104048:	97c2                	add	a5,a5,a6
2010404a:	fff50713          	addi	a4,a0,-1
2010404e:	0107e463          	bltu	a5,a6,20104056 <__udivdi3+0x16a>
20104052:	2267e063          	bltu	a5,t1,20104272 <__udivdi3+0x386>
20104056:	853a                	mv	a0,a4
20104058:	406787b3          	sub	a5,a5,t1
2010405c:	02d7d733          	divu	a4,a5,a3
20104060:	0808c8b3          	zext.h	a7,a7
20104064:	02d7f7b3          	remu	a5,a5,a3
20104068:	02c70633          	mul	a2,a4,a2
2010406c:	07c2                	slli	a5,a5,0x10
2010406e:	00f8e8b3          	or	a7,a7,a5
20104072:	00c8fb63          	bgeu	a7,a2,20104088 <__udivdi3+0x19c>
20104076:	98c2                	add	a7,a7,a6
20104078:	fff70793          	addi	a5,a4,-1
2010407c:	0108e563          	bltu	a7,a6,20104086 <__udivdi3+0x19a>
20104080:	1779                	addi	a4,a4,-2
20104082:	00c8e363          	bltu	a7,a2,20104088 <__udivdi3+0x19c>
20104086:	873e                	mv	a4,a5
20104088:	0542                	slli	a0,a0,0x10
2010408a:	8d59                	or	a0,a0,a4
2010408c:	8082                	ret
2010408e:	10063793          	sltiu	a5,a2,256
20104092:	0017c793          	xori	a5,a5,1
20104096:	078e                	slli	a5,a5,0x3
20104098:	bd9d                	j	20103f0e <__udivdi3+0x22>
2010409a:	4681                	li	a3,0
2010409c:	00002797          	auipc	a5,0x2
201040a0:	00078793          	mv	a5,a5
201040a4:	97b6                	add	a5,a5,a3
201040a6:	239c                	lbu	a5,0(a5)
201040a8:	4701                	li	a4,0
201040aa:	02000693          	li	a3,32
201040ae:	97ba                	add	a5,a5,a4
201040b0:	40f68eb3          	sub	t4,a3,a5
201040b4:	f6f687e3          	beq	a3,a5,20104022 <__udivdi3+0x136>
201040b8:	01d61833          	sll	a6,a2,t4
201040bc:	00f5d333          	srl	t1,a1,a5
201040c0:	01085693          	srli	a3,a6,0x10
201040c4:	02d35e33          	divu	t3,t1,a3
201040c8:	01d595b3          	sll	a1,a1,t4
201040cc:	00f557b3          	srl	a5,a0,a5
201040d0:	8fcd                	or	a5,a5,a1
201040d2:	08084633          	zext.h	a2,a6
201040d6:	0107d713          	srli	a4,a5,0x10
201040da:	01d518b3          	sll	a7,a0,t4
201040de:	02d37333          	remu	t1,t1,a3
201040e2:	03c605b3          	mul	a1,a2,t3
201040e6:	0342                	slli	t1,t1,0x10
201040e8:	00676733          	or	a4,a4,t1
201040ec:	00b77b63          	bgeu	a4,a1,20104102 <__udivdi3+0x216>
201040f0:	9742                	add	a4,a4,a6
201040f2:	fffe0513          	addi	a0,t3,-1 # 1ffffff <_data_lma+0x1ff9bff>
201040f6:	17076a63          	bltu	a4,a6,2010426a <__udivdi3+0x37e>
201040fa:	16b77863          	bgeu	a4,a1,2010426a <__udivdi3+0x37e>
201040fe:	1e79                	addi	t3,t3,-2
20104100:	9742                	add	a4,a4,a6
20104102:	8f0d                	sub	a4,a4,a1
20104104:	02d75533          	divu	a0,a4,a3
20104108:	0807c7b3          	zext.h	a5,a5
2010410c:	02d77733          	remu	a4,a4,a3
20104110:	02a60333          	mul	t1,a2,a0
20104114:	0742                	slli	a4,a4,0x10
20104116:	8fd9                	or	a5,a5,a4
20104118:	0067fb63          	bgeu	a5,t1,2010412e <__udivdi3+0x242>
2010411c:	97c2                	add	a5,a5,a6
2010411e:	fff50713          	addi	a4,a0,-1
20104122:	1507e063          	bltu	a5,a6,20104262 <__udivdi3+0x376>
20104126:	1267fe63          	bgeu	a5,t1,20104262 <__udivdi3+0x376>
2010412a:	1579                	addi	a0,a0,-2
2010412c:	97c2                	add	a5,a5,a6
2010412e:	010e1593          	slli	a1,t3,0x10
20104132:	406787b3          	sub	a5,a5,t1
20104136:	8dc9                	or	a1,a1,a0
20104138:	bde5                	j	20104030 <__udivdi3+0x144>
2010413a:	1006b793          	sltiu	a5,a3,256
2010413e:	0017c793          	xori	a5,a5,1
20104142:	078e                	slli	a5,a5,0x3
20104144:	00f6d833          	srl	a6,a3,a5
20104148:	00002717          	auipc	a4,0x2
2010414c:	f5470713          	addi	a4,a4,-172 # 2010609c <__clz_tab>
20104150:	9742                	add	a4,a4,a6
20104152:	2318                	lbu	a4,0(a4)
20104154:	02000893          	li	a7,32
20104158:	973e                	add	a4,a4,a5
2010415a:	40e88833          	sub	a6,a7,a4
2010415e:	e8e882e3          	beq	a7,a4,20103fe2 <__udivdi3+0xf6>
20104162:	00e65e33          	srl	t3,a2,a4
20104166:	010696b3          	sll	a3,a3,a6
2010416a:	00de6e33          	or	t3,t3,a3
2010416e:	00e5d8b3          	srl	a7,a1,a4
20104172:	010e5e93          	srli	t4,t3,0x10
20104176:	03d8d7b3          	divu	a5,a7,t4
2010417a:	010595b3          	sll	a1,a1,a6
2010417e:	00e55733          	srl	a4,a0,a4
20104182:	8f4d                	or	a4,a4,a1
20104184:	080e4333          	zext.h	t1,t3
20104188:	01075693          	srli	a3,a4,0x10
2010418c:	01061633          	sll	a2,a2,a6
20104190:	03d8f8b3          	remu	a7,a7,t4
20104194:	02f305b3          	mul	a1,t1,a5
20104198:	08c2                	slli	a7,a7,0x10
2010419a:	0116e6b3          	or	a3,a3,a7
2010419e:	00b6fb63          	bgeu	a3,a1,201041b4 <__udivdi3+0x2c8>
201041a2:	96f2                	add	a3,a3,t3
201041a4:	fff78893          	addi	a7,a5,-1 # 2010609b <g_font_6x8+0x5ab>
201041a8:	0dc6e363          	bltu	a3,t3,2010426e <__udivdi3+0x382>
201041ac:	0cb6f163          	bgeu	a3,a1,2010426e <__udivdi3+0x382>
201041b0:	17f9                	addi	a5,a5,-2
201041b2:	96f2                	add	a3,a3,t3
201041b4:	8e8d                	sub	a3,a3,a1
201041b6:	03d6d5b3          	divu	a1,a3,t4
201041ba:	08074733          	zext.h	a4,a4
201041be:	03d6f6b3          	remu	a3,a3,t4
201041c2:	02b308b3          	mul	a7,t1,a1
201041c6:	06c2                	slli	a3,a3,0x10
201041c8:	8f55                	or	a4,a4,a3
201041ca:	01177b63          	bgeu	a4,a7,201041e0 <__udivdi3+0x2f4>
201041ce:	9772                	add	a4,a4,t3
201041d0:	fff58693          	addi	a3,a1,-1
201041d4:	09c76963          	bltu	a4,t3,20104266 <__udivdi3+0x37a>
201041d8:	09177763          	bgeu	a4,a7,20104266 <__udivdi3+0x37a>
201041dc:	15f9                	addi	a1,a1,-2
201041de:	9772                	add	a4,a4,t3
201041e0:	07c2                	slli	a5,a5,0x10
201041e2:	6ec1                	lui	t4,0x10
201041e4:	8fcd                	or	a5,a5,a1
201041e6:	fffe8693          	addi	a3,t4,-1 # ffff <_data_lma+0x9bff>
201041ea:	00d7f5b3          	and	a1,a5,a3
201041ee:	0107d313          	srli	t1,a5,0x10
201041f2:	8ef1                	and	a3,a3,a2
201041f4:	8241                	srli	a2,a2,0x10
201041f6:	02d58e33          	mul	t3,a1,a3
201041fa:	41170733          	sub	a4,a4,a7
201041fe:	02d306b3          	mul	a3,t1,a3
20104202:	010e5893          	srli	a7,t3,0x10
20104206:	02c585b3          	mul	a1,a1,a2
2010420a:	95b6                	add	a1,a1,a3
2010420c:	95c6                	add	a1,a1,a7
2010420e:	02c30333          	mul	t1,t1,a2
20104212:	00d5f363          	bgeu	a1,a3,20104218 <__udivdi3+0x32c>
20104216:	9376                	add	t1,t1,t4
20104218:	0105d693          	srli	a3,a1,0x10
2010421c:	969a                	add	a3,a3,t1
2010421e:	02d76363          	bltu	a4,a3,20104244 <__udivdi3+0x358>
20104222:	00d70563          	beq	a4,a3,2010422c <__udivdi3+0x340>
20104226:	853e                	mv	a0,a5
20104228:	4581                	li	a1,0
2010422a:	8082                	ret
2010422c:	66c1                	lui	a3,0x10
2010422e:	16fd                	addi	a3,a3,-1 # ffff <_data_lma+0x9bff>
20104230:	00d5f733          	and	a4,a1,a3
20104234:	0742                	slli	a4,a4,0x10
20104236:	00de7e33          	and	t3,t3,a3
2010423a:	01051533          	sll	a0,a0,a6
2010423e:	9772                	add	a4,a4,t3
20104240:	fee573e3          	bgeu	a0,a4,20104226 <__udivdi3+0x33a>
20104244:	fff78513          	addi	a0,a5,-1
20104248:	4581                	li	a1,0
2010424a:	8082                	ret
2010424c:	010007b7          	lui	a5,0x1000
20104250:	02f67763          	bgeu	a2,a5,2010427e <__udivdi3+0x392>
20104254:	01065693          	srli	a3,a2,0x10
20104258:	4741                	li	a4,16
2010425a:	b37d                	j	20104008 <__udivdi3+0x11c>
2010425c:	4581                	li	a1,0
2010425e:	4505                	li	a0,1
20104260:	8082                	ret
20104262:	853a                	mv	a0,a4
20104264:	b5e9                	j	2010412e <__udivdi3+0x242>
20104266:	85b6                	mv	a1,a3
20104268:	bfa5                	j	201041e0 <__udivdi3+0x2f4>
2010426a:	8e2a                	mv	t3,a0
2010426c:	bd59                	j	20104102 <__udivdi3+0x216>
2010426e:	87c6                	mv	a5,a7
20104270:	b791                	j	201041b4 <__udivdi3+0x2c8>
20104272:	1579                	addi	a0,a0,-2
20104274:	97c2                	add	a5,a5,a6
20104276:	b3cd                	j	20104058 <__udivdi3+0x16c>
20104278:	1579                	addi	a0,a0,-2
2010427a:	97c2                	add	a5,a5,a6
2010427c:	b9cd                	j	20103f6e <__udivdi3+0x82>
2010427e:	01865693          	srli	a3,a2,0x18
20104282:	4761                	li	a4,24
20104284:	b351                	j	20104008 <__udivdi3+0x11c>

20104286 <iprintf>:
20104286:	715d                	addi	sp,sp,-80
20104288:	d422                	sw	s0,40(sp)
2010428a:	d606                	sw	ra,44(sp)
2010428c:	842a                	mv	s0,a0
2010428e:	da2e                	sw	a1,52(sp)
20104290:	dc32                	sw	a2,56(sp)
20104292:	de36                	sw	a3,60(sp)
20104294:	c0ba                	sw	a4,64(sp)
20104296:	c2be                	sw	a5,68(sp)
20104298:	c4c2                	sw	a6,72(sp)
2010429a:	c6c6                	sw	a7,76(sp)
2010429c:	82c1a503          	lw	a0,-2004(gp) # 2011020c <_impure_ptr>
201042a0:	c511                	beqz	a0,201042ac <iprintf+0x26>
201042a2:	4d1c                	lw	a5,24(a0)
201042a4:	e781                	bnez	a5,201042ac <iprintf+0x26>
201042a6:	c62a                	sw	a0,12(sp)
201042a8:	2be1                	jal	20104880 <__sinit>
201042aa:	4532                	lw	a0,12(sp)
201042ac:	450c                	lw	a1,8(a0)
201042ae:	1854                	addi	a3,sp,52
201042b0:	8622                	mv	a2,s0
201042b2:	ce36                	sw	a3,28(sp)
201042b4:	17a010ef          	jal	ra,2010542e <_vfiprintf_r>
201042b8:	50b2                	lw	ra,44(sp)
201042ba:	5422                	lw	s0,40(sp)
201042bc:	6161                	addi	sp,sp,80
201042be:	8082                	ret

201042c0 <_puts_r>:
201042c0:	1101                	addi	sp,sp,-32
201042c2:	ca26                	sw	s1,20(sp)
201042c4:	ce06                	sw	ra,28(sp)
201042c6:	cc22                	sw	s0,24(sp)
201042c8:	c84a                	sw	s2,16(sp)
201042ca:	c64e                	sw	s3,12(sp)
201042cc:	c452                	sw	s4,8(sp)
201042ce:	84aa                	mv	s1,a0
201042d0:	e119                	bnez	a0,201042d6 <_puts_r+0x16>
201042d2:	451c                	lw	a5,8(a0)
201042d4:	9002                	ebreak
201042d6:	4d1c                	lw	a5,24(a0)
201042d8:	892e                	mv	s2,a1
201042da:	e3b5                	bnez	a5,2010433e <_puts_r+0x7e>
201042dc:	2355                	jal	20104880 <__sinit>
201042de:	4c9c                	lw	a5,24(s1)
201042e0:	4480                	lw	s0,8(s1)
201042e2:	c3a5                	beqz	a5,20104342 <_puts_r+0x82>
201042e4:	00002797          	auipc	a5,0x2
201042e8:	ef878793          	addi	a5,a5,-264 # 201061dc <__sf_fake_stdin>
201042ec:	04f41e63          	bne	s0,a5,20104348 <_puts_r+0x88>
201042f0:	40c0                	lw	s0,4(s1)
201042f2:	507c                	lw	a5,100(s0)
201042f4:	8b85                	andi	a5,a5,1
201042f6:	eb81                	bnez	a5,20104306 <_puts_r+0x46>
201042f8:	245e                	lhu	a5,12(s0)
201042fa:	2007f793          	andi	a5,a5,512
201042fe:	e781                	bnez	a5,20104306 <_puts_r+0x46>
20104300:	4c28                	lw	a0,88(s0)
20104302:	70a000ef          	jal	ra,20104a0c <__retarget_lock_acquire_recursive>
20104306:	245e                	lhu	a5,12(s0)
20104308:	8ba1                	andi	a5,a5,8
2010430a:	c399                	beqz	a5,20104310 <_puts_r+0x50>
2010430c:	481c                	lw	a5,16(s0)
2010430e:	e3d5                	bnez	a5,201043b2 <_puts_r+0xf2>
20104310:	85a2                	mv	a1,s0
20104312:	8526                	mv	a0,s1
20104314:	2add                	jal	2010450a <__swsetup_r>
20104316:	cd51                	beqz	a0,201043b2 <_puts_r+0xf2>
20104318:	54fd                	li	s1,-1
2010431a:	507c                	lw	a5,100(s0)
2010431c:	8b85                	andi	a5,a5,1
2010431e:	e799                	bnez	a5,2010432c <_puts_r+0x6c>
20104320:	245e                	lhu	a5,12(s0)
20104322:	2007f793          	andi	a5,a5,512
20104326:	e399                	bnez	a5,2010432c <_puts_r+0x6c>
20104328:	4c28                	lw	a0,88(s0)
2010432a:	25d5                	jal	20104a0e <__retarget_lock_release_recursive>
2010432c:	40f2                	lw	ra,28(sp)
2010432e:	4462                	lw	s0,24(sp)
20104330:	4942                	lw	s2,16(sp)
20104332:	49b2                	lw	s3,12(sp)
20104334:	4a22                	lw	s4,8(sp)
20104336:	8526                	mv	a0,s1
20104338:	44d2                	lw	s1,20(sp)
2010433a:	6105                	addi	sp,sp,32
2010433c:	8082                	ret
2010433e:	4500                	lw	s0,8(a0)
20104340:	b755                	j	201042e4 <_puts_r+0x24>
20104342:	8526                	mv	a0,s1
20104344:	2b35                	jal	20104880 <__sinit>
20104346:	bf79                	j	201042e4 <_puts_r+0x24>
20104348:	00002797          	auipc	a5,0x2
2010434c:	e7478793          	addi	a5,a5,-396 # 201061bc <__sf_fake_stdout>
20104350:	00f41463          	bne	s0,a5,20104358 <_puts_r+0x98>
20104354:	4480                	lw	s0,8(s1)
20104356:	bf71                	j	201042f2 <_puts_r+0x32>
20104358:	00002797          	auipc	a5,0x2
2010435c:	e4478793          	addi	a5,a5,-444 # 2010619c <__sf_fake_stderr>
20104360:	f8f419e3          	bne	s0,a5,201042f2 <_puts_r+0x32>
20104364:	44c0                	lw	s0,12(s1)
20104366:	b771                	j	201042f2 <_puts_r+0x32>
20104368:	c41c                	sw	a5,8(s0)
2010436a:	0905                	addi	s2,s2,1
2010436c:	0207c863          	bltz	a5,2010439c <_puts_r+0xdc>
20104370:	401c                	lw	a5,0(s0)
20104372:	00178713          	addi	a4,a5,1
20104376:	c018                	sw	a4,0(s0)
20104378:	a38c                	sb	a1,0(a5)
2010437a:	441c                	lw	a5,8(s0)
2010437c:	00094583          	lbu	a1,0(s2)
20104380:	17fd                	addi	a5,a5,-1
20104382:	f1fd                	bnez	a1,20104368 <_puts_r+0xa8>
20104384:	c41c                	sw	a5,8(s0)
20104386:	0207d963          	bgez	a5,201043b8 <_puts_r+0xf8>
2010438a:	8622                	mv	a2,s0
2010438c:	45a9                	li	a1,10
2010438e:	8526                	mv	a0,s1
20104390:	287d                	jal	2010444e <__swbuf_r>
20104392:	57fd                	li	a5,-1
20104394:	f8f502e3          	beq	a0,a5,20104318 <_puts_r+0x58>
20104398:	44a9                	li	s1,10
2010439a:	b741                	j	2010431a <_puts_r+0x5a>
2010439c:	4c18                	lw	a4,24(s0)
2010439e:	00e7c463          	blt	a5,a4,201043a6 <_puts_r+0xe6>
201043a2:	fd4597e3          	bne	a1,s4,20104370 <_puts_r+0xb0>
201043a6:	8622                	mv	a2,s0
201043a8:	8526                	mv	a0,s1
201043aa:	2055                	jal	2010444e <__swbuf_r>
201043ac:	fd3517e3          	bne	a0,s3,2010437a <_puts_r+0xba>
201043b0:	b7a5                	j	20104318 <_puts_r+0x58>
201043b2:	59fd                	li	s3,-1
201043b4:	4a29                	li	s4,10
201043b6:	b7d1                	j	2010437a <_puts_r+0xba>
201043b8:	401c                	lw	a5,0(s0)
201043ba:	00178713          	addi	a4,a5,1
201043be:	c018                	sw	a4,0(s0)
201043c0:	4729                	li	a4,10
201043c2:	a398                	sb	a4,0(a5)
201043c4:	bfd1                	j	20104398 <_puts_r+0xd8>

201043c6 <puts>:
201043c6:	85aa                	mv	a1,a0
201043c8:	82c1a503          	lw	a0,-2004(gp) # 2011020c <_impure_ptr>
201043cc:	ef5ff06f          	j	201042c0 <_puts_r>

201043d0 <sniprintf>:
201043d0:	7135                	addi	sp,sp,-160
201043d2:	daa6                	sw	s1,116(sp)
201043d4:	de86                	sw	ra,124(sp)
201043d6:	dca2                	sw	s0,120(sp)
201043d8:	d8ca                	sw	s2,112(sp)
201043da:	c736                	sw	a3,140(sp)
201043dc:	c93a                	sw	a4,144(sp)
201043de:	cb3e                	sw	a5,148(sp)
201043e0:	cd42                	sw	a6,152(sp)
201043e2:	cf46                	sw	a7,156(sp)
201043e4:	82c1a483          	lw	s1,-2004(gp) # 2011020c <_impure_ptr>
201043e8:	0005dc63          	bgez	a1,20104400 <sniprintf+0x30>
201043ec:	08b00793          	li	a5,139
201043f0:	c09c                	sw	a5,0(s1)
201043f2:	557d                	li	a0,-1
201043f4:	50f6                	lw	ra,124(sp)
201043f6:	5466                	lw	s0,120(sp)
201043f8:	54d6                	lw	s1,116(sp)
201043fa:	5946                	lw	s2,112(sp)
201043fc:	610d                	addi	sp,sp,160
201043fe:	8082                	ret
20104400:	20800793          	li	a5,520
20104404:	82fc                	sh	a5,20(sp)
20104406:	c42a                	sw	a0,8(sp)
20104408:	cc2a                	sw	a0,24(sp)
2010440a:	842e                	mv	s0,a1
2010440c:	4781                	li	a5,0
2010440e:	c199                	beqz	a1,20104414 <sniprintf+0x44>
20104410:	fff58793          	addi	a5,a1,-1
20104414:	597d                	li	s2,-1
20104416:	0174                	addi	a3,sp,140
20104418:	002c                	addi	a1,sp,8
2010441a:	8526                	mv	a0,s1
2010441c:	c83e                	sw	a5,16(sp)
2010441e:	ce3e                	sw	a5,28(sp)
20104420:	01211b23          	sh	s2,22(sp)
20104424:	c236                	sw	a3,4(sp)
20104426:	1c3000ef          	jal	ra,20104de8 <_svfiprintf_r>
2010442a:	01255563          	bge	a0,s2,20104434 <sniprintf+0x64>
2010442e:	08b00793          	li	a5,139
20104432:	c09c                	sw	a5,0(s1)
20104434:	d061                	beqz	s0,201043f4 <sniprintf+0x24>
20104436:	47a2                	lw	a5,8(sp)
20104438:	00078023          	sb	zero,0(a5)
2010443c:	bf65                	j	201043f4 <sniprintf+0x24>

2010443e <strlen>:
2010443e:	87aa                	mv	a5,a0
20104440:	2398                	lbu	a4,0(a5)
20104442:	0785                	addi	a5,a5,1
20104444:	ff75                	bnez	a4,20104440 <strlen+0x2>
20104446:	40a78533          	sub	a0,a5,a0
2010444a:	157d                	addi	a0,a0,-1
2010444c:	8082                	ret

2010444e <__swbuf_r>:
2010444e:	1101                	addi	sp,sp,-32
20104450:	cc22                	sw	s0,24(sp)
20104452:	ca26                	sw	s1,20(sp)
20104454:	c84a                	sw	s2,16(sp)
20104456:	ce06                	sw	ra,28(sp)
20104458:	c64e                	sw	s3,12(sp)
2010445a:	84aa                	mv	s1,a0
2010445c:	892e                	mv	s2,a1
2010445e:	8432                	mv	s0,a2
20104460:	c501                	beqz	a0,20104468 <__swbuf_r+0x1a>
20104462:	4d1c                	lw	a5,24(a0)
20104464:	e391                	bnez	a5,20104468 <__swbuf_r+0x1a>
20104466:	2929                	jal	20104880 <__sinit>
20104468:	00002797          	auipc	a5,0x2
2010446c:	d7478793          	addi	a5,a5,-652 # 201061dc <__sf_fake_stdin>
20104470:	02f41763          	bne	s0,a5,2010449e <__swbuf_r+0x50>
20104474:	40c0                	lw	s0,4(s1)
20104476:	4c1c                	lw	a5,24(s0)
20104478:	c41c                	sw	a5,8(s0)
2010447a:	245e                	lhu	a5,12(s0)
2010447c:	8ba1                	andi	a5,a5,8
2010447e:	c399                	beqz	a5,20104484 <__swbuf_r+0x36>
20104480:	481c                	lw	a5,16(s0)
20104482:	ef95                	bnez	a5,201044be <__swbuf_r+0x70>
20104484:	85a2                	mv	a1,s0
20104486:	8526                	mv	a0,s1
20104488:	2049                	jal	2010450a <__swsetup_r>
2010448a:	c915                	beqz	a0,201044be <__swbuf_r+0x70>
2010448c:	597d                	li	s2,-1
2010448e:	40f2                	lw	ra,28(sp)
20104490:	4462                	lw	s0,24(sp)
20104492:	44d2                	lw	s1,20(sp)
20104494:	49b2                	lw	s3,12(sp)
20104496:	854a                	mv	a0,s2
20104498:	4942                	lw	s2,16(sp)
2010449a:	6105                	addi	sp,sp,32
2010449c:	8082                	ret
2010449e:	00002797          	auipc	a5,0x2
201044a2:	d1e78793          	addi	a5,a5,-738 # 201061bc <__sf_fake_stdout>
201044a6:	00f41463          	bne	s0,a5,201044ae <__swbuf_r+0x60>
201044aa:	4480                	lw	s0,8(s1)
201044ac:	b7e9                	j	20104476 <__swbuf_r+0x28>
201044ae:	00002797          	auipc	a5,0x2
201044b2:	cee78793          	addi	a5,a5,-786 # 2010619c <__sf_fake_stderr>
201044b6:	fcf410e3          	bne	s0,a5,20104476 <__swbuf_r+0x28>
201044ba:	44c0                	lw	s0,12(s1)
201044bc:	bf6d                	j	20104476 <__swbuf_r+0x28>
201044be:	481c                	lw	a5,16(s0)
201044c0:	4008                	lw	a0,0(s0)
201044c2:	0ff97993          	zext.b	s3,s2
201044c6:	0ff97913          	zext.b	s2,s2
201044ca:	8d1d                	sub	a0,a0,a5
201044cc:	485c                	lw	a5,20(s0)
201044ce:	00f54663          	blt	a0,a5,201044da <__swbuf_r+0x8c>
201044d2:	85a2                	mv	a1,s0
201044d4:	8526                	mv	a0,s1
201044d6:	2c91                	jal	2010472a <_fflush_r>
201044d8:	f955                	bnez	a0,2010448c <__swbuf_r+0x3e>
201044da:	441c                	lw	a5,8(s0)
201044dc:	0505                	addi	a0,a0,1
201044de:	17fd                	addi	a5,a5,-1
201044e0:	c41c                	sw	a5,8(s0)
201044e2:	401c                	lw	a5,0(s0)
201044e4:	00178713          	addi	a4,a5,1
201044e8:	c018                	sw	a4,0(s0)
201044ea:	01378023          	sb	s3,0(a5)
201044ee:	485c                	lw	a5,20(s0)
201044f0:	00a78863          	beq	a5,a0,20104500 <__swbuf_r+0xb2>
201044f4:	245e                	lhu	a5,12(s0)
201044f6:	8b85                	andi	a5,a5,1
201044f8:	dbd9                	beqz	a5,2010448e <__swbuf_r+0x40>
201044fa:	47a9                	li	a5,10
201044fc:	f8f919e3          	bne	s2,a5,2010448e <__swbuf_r+0x40>
20104500:	85a2                	mv	a1,s0
20104502:	8526                	mv	a0,s1
20104504:	241d                	jal	2010472a <_fflush_r>
20104506:	d541                	beqz	a0,2010448e <__swbuf_r+0x40>
20104508:	b751                	j	2010448c <__swbuf_r+0x3e>

2010450a <__swsetup_r>:
2010450a:	1141                	addi	sp,sp,-16
2010450c:	c422                	sw	s0,8(sp)
2010450e:	c226                	sw	s1,4(sp)
20104510:	c04a                	sw	s2,0(sp)
20104512:	c606                	sw	ra,12(sp)
20104514:	82c1a483          	lw	s1,-2004(gp) # 2011020c <_impure_ptr>
20104518:	892a                	mv	s2,a0
2010451a:	842e                	mv	s0,a1
2010451c:	c489                	beqz	s1,20104526 <__swsetup_r+0x1c>
2010451e:	4c9c                	lw	a5,24(s1)
20104520:	e399                	bnez	a5,20104526 <__swsetup_r+0x1c>
20104522:	8526                	mv	a0,s1
20104524:	2eb1                	jal	20104880 <__sinit>
20104526:	00002797          	auipc	a5,0x2
2010452a:	cb678793          	addi	a5,a5,-842 # 201061dc <__sf_fake_stdin>
2010452e:	02f41363          	bne	s0,a5,20104554 <__swsetup_r+0x4a>
20104532:	40c0                	lw	s0,4(s1)
20104534:	00c41783          	lh	a5,12(s0)
20104538:	0087f713          	andi	a4,a5,8
2010453c:	e725                	bnez	a4,201045a4 <__swsetup_r+0x9a>
2010453e:	0107f713          	andi	a4,a5,16
20104542:	eb0d                	bnez	a4,20104574 <__swsetup_r+0x6a>
20104544:	4725                	li	a4,9
20104546:	00e92023          	sw	a4,0(s2)
2010454a:	0407e793          	ori	a5,a5,64
2010454e:	a45e                	sh	a5,12(s0)
20104550:	557d                	li	a0,-1
20104552:	a071                	j	201045de <__swsetup_r+0xd4>
20104554:	00002797          	auipc	a5,0x2
20104558:	c6878793          	addi	a5,a5,-920 # 201061bc <__sf_fake_stdout>
2010455c:	00f41463          	bne	s0,a5,20104564 <__swsetup_r+0x5a>
20104560:	4480                	lw	s0,8(s1)
20104562:	bfc9                	j	20104534 <__swsetup_r+0x2a>
20104564:	00002797          	auipc	a5,0x2
20104568:	c3878793          	addi	a5,a5,-968 # 2010619c <__sf_fake_stderr>
2010456c:	fcf414e3          	bne	s0,a5,20104534 <__swsetup_r+0x2a>
20104570:	44c0                	lw	s0,12(s1)
20104572:	b7c9                	j	20104534 <__swsetup_r+0x2a>
20104574:	8b91                	andi	a5,a5,4
20104576:	c39d                	beqz	a5,2010459c <__swsetup_r+0x92>
20104578:	584c                	lw	a1,52(s0)
2010457a:	c989                	beqz	a1,2010458c <__swsetup_r+0x82>
2010457c:	04440793          	addi	a5,s0,68
20104580:	00f58463          	beq	a1,a5,20104588 <__swsetup_r+0x7e>
20104584:	854a                	mv	a0,s2
20104586:	2bad                	jal	20104b00 <_free_r>
20104588:	02042a23          	sw	zero,52(s0)
2010458c:	245e                	lhu	a5,12(s0)
2010458e:	00042223          	sw	zero,4(s0)
20104592:	fdb7f793          	andi	a5,a5,-37
20104596:	a45e                	sh	a5,12(s0)
20104598:	481c                	lw	a5,16(s0)
2010459a:	c01c                	sw	a5,0(s0)
2010459c:	245e                	lhu	a5,12(s0)
2010459e:	0087e793          	ori	a5,a5,8
201045a2:	a45e                	sh	a5,12(s0)
201045a4:	481c                	lw	a5,16(s0)
201045a6:	eb99                	bnez	a5,201045bc <__swsetup_r+0xb2>
201045a8:	245e                	lhu	a5,12(s0)
201045aa:	20000713          	li	a4,512
201045ae:	2807f793          	andi	a5,a5,640
201045b2:	00e78563          	beq	a5,a4,201045bc <__swsetup_r+0xb2>
201045b6:	85a2                	mv	a1,s0
201045b8:	854a                	mv	a0,s2
201045ba:	2945                	jal	20104a6a <__smakebuf_r>
201045bc:	00c41783          	lh	a5,12(s0)
201045c0:	0017f713          	andi	a4,a5,1
201045c4:	c31d                	beqz	a4,201045ea <__swsetup_r+0xe0>
201045c6:	4858                	lw	a4,20(s0)
201045c8:	00042423          	sw	zero,8(s0)
201045cc:	40e00733          	neg	a4,a4
201045d0:	cc18                	sw	a4,24(s0)
201045d2:	4818                	lw	a4,16(s0)
201045d4:	4501                	li	a0,0
201045d6:	e701                	bnez	a4,201045de <__swsetup_r+0xd4>
201045d8:	0807f713          	andi	a4,a5,128
201045dc:	f73d                	bnez	a4,2010454a <__swsetup_r+0x40>
201045de:	40b2                	lw	ra,12(sp)
201045e0:	4422                	lw	s0,8(sp)
201045e2:	4492                	lw	s1,4(sp)
201045e4:	4902                	lw	s2,0(sp)
201045e6:	0141                	addi	sp,sp,16
201045e8:	8082                	ret
201045ea:	0027f713          	andi	a4,a5,2
201045ee:	4681                	li	a3,0
201045f0:	e311                	bnez	a4,201045f4 <__swsetup_r+0xea>
201045f2:	4854                	lw	a3,20(s0)
201045f4:	c414                	sw	a3,8(s0)
201045f6:	bff1                	j	201045d2 <__swsetup_r+0xc8>

201045f8 <__sflush_r>:
201045f8:	00c59783          	lh	a5,12(a1)
201045fc:	1101                	addi	sp,sp,-32
201045fe:	cc22                	sw	s0,24(sp)
20104600:	ca26                	sw	s1,20(sp)
20104602:	ce06                	sw	ra,28(sp)
20104604:	c84a                	sw	s2,16(sp)
20104606:	c64e                	sw	s3,12(sp)
20104608:	0087f713          	andi	a4,a5,8
2010460c:	84aa                	mv	s1,a0
2010460e:	842e                	mv	s0,a1
20104610:	e379                	bnez	a4,201046d6 <__sflush_r+0xde>
20104612:	41d8                	lw	a4,4(a1)
20104614:	00e04563          	bgtz	a4,2010461e <__sflush_r+0x26>
20104618:	41b8                	lw	a4,64(a1)
2010461a:	08e05663          	blez	a4,201046a6 <__sflush_r+0xae>
2010461e:	5458                	lw	a4,44(s0)
20104620:	c359                	beqz	a4,201046a6 <__sflush_r+0xae>
20104622:	0004a903          	lw	s2,0(s1)
20104626:	0004a023          	sw	zero,0(s1)
2010462a:	500c                	lw	a1,32(s0)
2010462c:	48c7d793          	bexti	a5,a5,0xc
20104630:	cba9                	beqz	a5,20104682 <__sflush_r+0x8a>
20104632:	4870                	lw	a2,84(s0)
20104634:	245e                	lhu	a5,12(s0)
20104636:	8b91                	andi	a5,a5,4
20104638:	c799                	beqz	a5,20104646 <__sflush_r+0x4e>
2010463a:	405c                	lw	a5,4(s0)
2010463c:	8e1d                	sub	a2,a2,a5
2010463e:	585c                	lw	a5,52(s0)
20104640:	c399                	beqz	a5,20104646 <__sflush_r+0x4e>
20104642:	403c                	lw	a5,64(s0)
20104644:	8e1d                	sub	a2,a2,a5
20104646:	545c                	lw	a5,44(s0)
20104648:	500c                	lw	a1,32(s0)
2010464a:	4681                	li	a3,0
2010464c:	8526                	mv	a0,s1
2010464e:	9782                	jalr	a5
20104650:	57fd                	li	a5,-1
20104652:	04f50c63          	beq	a0,a5,201046aa <__sflush_r+0xb2>
20104656:	481c                	lw	a5,16(s0)
20104658:	6705                	lui	a4,0x1
2010465a:	00042223          	sw	zero,4(s0)
2010465e:	c01c                	sw	a5,0(s0)
20104660:	245e                	lhu	a5,12(s0)
20104662:	8ff9                	and	a5,a5,a4
20104664:	c391                	beqz	a5,20104668 <__sflush_r+0x70>
20104666:	c868                	sw	a0,84(s0)
20104668:	584c                	lw	a1,52(s0)
2010466a:	0124a023          	sw	s2,0(s1)
2010466e:	cd85                	beqz	a1,201046a6 <__sflush_r+0xae>
20104670:	04440793          	addi	a5,s0,68
20104674:	00f58463          	beq	a1,a5,2010467c <__sflush_r+0x84>
20104678:	8526                	mv	a0,s1
2010467a:	2159                	jal	20104b00 <_free_r>
2010467c:	02042a23          	sw	zero,52(s0)
20104680:	a01d                	j	201046a6 <__sflush_r+0xae>
20104682:	4601                	li	a2,0
20104684:	4685                	li	a3,1
20104686:	8526                	mv	a0,s1
20104688:	9702                	jalr	a4
2010468a:	57fd                	li	a5,-1
2010468c:	862a                	mv	a2,a0
2010468e:	faf513e3          	bne	a0,a5,20104634 <__sflush_r+0x3c>
20104692:	409c                	lw	a5,0(s1)
20104694:	d3c5                	beqz	a5,20104634 <__sflush_r+0x3c>
20104696:	4775                	li	a4,29
20104698:	00e78563          	beq	a5,a4,201046a2 <__sflush_r+0xaa>
2010469c:	4759                	li	a4,22
2010469e:	06e79563          	bne	a5,a4,20104708 <__sflush_r+0x110>
201046a2:	0124a023          	sw	s2,0(s1)
201046a6:	4501                	li	a0,0
201046a8:	a0b5                	j	20104714 <__sflush_r+0x11c>
201046aa:	4098                	lw	a4,0(s1)
201046ac:	00c41783          	lh	a5,12(s0)
201046b0:	cf01                	beqz	a4,201046c8 <__sflush_r+0xd0>
201046b2:	46f5                	li	a3,29
201046b4:	00d70563          	beq	a4,a3,201046be <__sflush_r+0xc6>
201046b8:	46d9                	li	a3,22
201046ba:	04d71963          	bne	a4,a3,2010470c <__sflush_r+0x114>
201046be:	481c                	lw	a5,16(s0)
201046c0:	00042223          	sw	zero,4(s0)
201046c4:	c01c                	sw	a5,0(s0)
201046c6:	b74d                	j	20104668 <__sflush_r+0x70>
201046c8:	4818                	lw	a4,16(s0)
201046ca:	00042223          	sw	zero,4(s0)
201046ce:	48c7d793          	bexti	a5,a5,0xc
201046d2:	c018                	sw	a4,0(s0)
201046d4:	bf41                	j	20104664 <__sflush_r+0x6c>
201046d6:	0105a983          	lw	s3,16(a1)
201046da:	fc0986e3          	beqz	s3,201046a6 <__sflush_r+0xae>
201046de:	0005a903          	lw	s2,0(a1)
201046e2:	8b8d                	andi	a5,a5,3
201046e4:	0135a023          	sw	s3,0(a1)
201046e8:	41390933          	sub	s2,s2,s3
201046ec:	4701                	li	a4,0
201046ee:	e391                	bnez	a5,201046f2 <__sflush_r+0xfa>
201046f0:	49d8                	lw	a4,20(a1)
201046f2:	c418                	sw	a4,8(s0)
201046f4:	fb2059e3          	blez	s2,201046a6 <__sflush_r+0xae>
201046f8:	541c                	lw	a5,40(s0)
201046fa:	500c                	lw	a1,32(s0)
201046fc:	86ca                	mv	a3,s2
201046fe:	864e                	mv	a2,s3
20104700:	8526                	mv	a0,s1
20104702:	9782                	jalr	a5
20104704:	00a04f63          	bgtz	a0,20104722 <__sflush_r+0x12a>
20104708:	00c41783          	lh	a5,12(s0)
2010470c:	0407e793          	ori	a5,a5,64
20104710:	a45e                	sh	a5,12(s0)
20104712:	557d                	li	a0,-1
20104714:	40f2                	lw	ra,28(sp)
20104716:	4462                	lw	s0,24(sp)
20104718:	44d2                	lw	s1,20(sp)
2010471a:	4942                	lw	s2,16(sp)
2010471c:	49b2                	lw	s3,12(sp)
2010471e:	6105                	addi	sp,sp,32
20104720:	8082                	ret
20104722:	99aa                	add	s3,s3,a0
20104724:	40a90933          	sub	s2,s2,a0
20104728:	b7f1                	j	201046f4 <__sflush_r+0xfc>

2010472a <_fflush_r>:
2010472a:	499c                	lw	a5,16(a1)
2010472c:	1141                	addi	sp,sp,-16
2010472e:	c606                	sw	ra,12(sp)
20104730:	c422                	sw	s0,8(sp)
20104732:	c226                	sw	s1,4(sp)
20104734:	eb81                	bnez	a5,20104744 <_fflush_r+0x1a>
20104736:	4481                	li	s1,0
20104738:	40b2                	lw	ra,12(sp)
2010473a:	4422                	lw	s0,8(sp)
2010473c:	8526                	mv	a0,s1
2010473e:	4492                	lw	s1,4(sp)
20104740:	0141                	addi	sp,sp,16
20104742:	8082                	ret
20104744:	84aa                	mv	s1,a0
20104746:	842e                	mv	s0,a1
20104748:	c501                	beqz	a0,20104750 <_fflush_r+0x26>
2010474a:	4d1c                	lw	a5,24(a0)
2010474c:	e391                	bnez	a5,20104750 <_fflush_r+0x26>
2010474e:	2a0d                	jal	20104880 <__sinit>
20104750:	00002797          	auipc	a5,0x2
20104754:	a8c78793          	addi	a5,a5,-1396 # 201061dc <__sf_fake_stdin>
20104758:	02f41d63          	bne	s0,a5,20104792 <_fflush_r+0x68>
2010475c:	40c0                	lw	s0,4(s1)
2010475e:	00c41783          	lh	a5,12(s0)
20104762:	dbf1                	beqz	a5,20104736 <_fflush_r+0xc>
20104764:	5078                	lw	a4,100(s0)
20104766:	8b05                	andi	a4,a4,1
20104768:	e711                	bnez	a4,20104774 <_fflush_r+0x4a>
2010476a:	2007f793          	andi	a5,a5,512
2010476e:	e399                	bnez	a5,20104774 <_fflush_r+0x4a>
20104770:	4c28                	lw	a0,88(s0)
20104772:	2c69                	jal	20104a0c <__retarget_lock_acquire_recursive>
20104774:	8526                	mv	a0,s1
20104776:	85a2                	mv	a1,s0
20104778:	e81ff0ef          	jal	ra,201045f8 <__sflush_r>
2010477c:	507c                	lw	a5,100(s0)
2010477e:	84aa                	mv	s1,a0
20104780:	8b85                	andi	a5,a5,1
20104782:	fbdd                	bnez	a5,20104738 <_fflush_r+0xe>
20104784:	245e                	lhu	a5,12(s0)
20104786:	2007f793          	andi	a5,a5,512
2010478a:	f7dd                	bnez	a5,20104738 <_fflush_r+0xe>
2010478c:	4c28                	lw	a0,88(s0)
2010478e:	2441                	jal	20104a0e <__retarget_lock_release_recursive>
20104790:	b765                	j	20104738 <_fflush_r+0xe>
20104792:	00002797          	auipc	a5,0x2
20104796:	a2a78793          	addi	a5,a5,-1494 # 201061bc <__sf_fake_stdout>
2010479a:	00f41463          	bne	s0,a5,201047a2 <_fflush_r+0x78>
2010479e:	4480                	lw	s0,8(s1)
201047a0:	bf7d                	j	2010475e <_fflush_r+0x34>
201047a2:	00002797          	auipc	a5,0x2
201047a6:	9fa78793          	addi	a5,a5,-1542 # 2010619c <__sf_fake_stderr>
201047aa:	faf41ae3          	bne	s0,a5,2010475e <_fflush_r+0x34>
201047ae:	44c0                	lw	s0,12(s1)
201047b0:	b77d                	j	2010475e <_fflush_r+0x34>

201047b2 <std>:
201047b2:	1141                	addi	sp,sp,-16
201047b4:	c422                	sw	s0,8(sp)
201047b6:	c606                	sw	ra,12(sp)
201047b8:	842a                	mv	s0,a0
201047ba:	a54e                	sh	a1,12(a0)
201047bc:	a572                	sh	a2,14(a0)
201047be:	00052023          	sw	zero,0(a0)
201047c2:	00052223          	sw	zero,4(a0)
201047c6:	00052423          	sw	zero,8(a0)
201047ca:	06052223          	sw	zero,100(a0)
201047ce:	00052823          	sw	zero,16(a0)
201047d2:	00052a23          	sw	zero,20(a0)
201047d6:	00052c23          	sw	zero,24(a0)
201047da:	4621                	li	a2,8
201047dc:	4581                	li	a1,0
201047de:	05c50513          	addi	a0,a0,92
201047e2:	ae9fb0ef          	jal	ra,201002ca <memset>
201047e6:	00001797          	auipc	a5,0x1
201047ea:	f2a78793          	addi	a5,a5,-214 # 20105710 <__sread>
201047ee:	d05c                	sw	a5,36(s0)
201047f0:	00001797          	auipc	a5,0x1
201047f4:	f4a78793          	addi	a5,a5,-182 # 2010573a <__swrite>
201047f8:	d41c                	sw	a5,40(s0)
201047fa:	00001797          	auipc	a5,0x1
201047fe:	f8678793          	addi	a5,a5,-122 # 20105780 <__sseek>
20104802:	d45c                	sw	a5,44(s0)
20104804:	00001797          	auipc	a5,0x1
20104808:	faa78793          	addi	a5,a5,-86 # 201057ae <__sclose>
2010480c:	40b2                	lw	ra,12(sp)
2010480e:	d000                	sw	s0,32(s0)
20104810:	d81c                	sw	a5,48(s0)
20104812:	4422                	lw	s0,8(sp)
20104814:	0141                	addi	sp,sp,16
20104816:	8082                	ret

20104818 <_cleanup_r>:
20104818:	00000597          	auipc	a1,0x0
2010481c:	f1258593          	addi	a1,a1,-238 # 2010472a <_fflush_r>
20104820:	a249                	j	201049a2 <_fwalk_reent>

20104822 <__sfmoreglue>:
20104822:	1141                	addi	sp,sp,-16
20104824:	c226                	sw	s1,4(sp)
20104826:	06800793          	li	a5,104
2010482a:	fff58493          	addi	s1,a1,-1
2010482e:	02f484b3          	mul	s1,s1,a5
20104832:	c04a                	sw	s2,0(sp)
20104834:	892e                	mv	s2,a1
20104836:	c422                	sw	s0,8(sp)
20104838:	c606                	sw	ra,12(sp)
2010483a:	07448593          	addi	a1,s1,116
2010483e:	2e7d                	jal	20104bfc <_malloc_r>
20104840:	842a                	mv	s0,a0
20104842:	cd01                	beqz	a0,2010485a <__sfmoreglue+0x38>
20104844:	00052023          	sw	zero,0(a0)
20104848:	01252223          	sw	s2,4(a0)
2010484c:	0531                	addi	a0,a0,12
2010484e:	c408                	sw	a0,8(s0)
20104850:	06848613          	addi	a2,s1,104
20104854:	4581                	li	a1,0
20104856:	a75fb0ef          	jal	ra,201002ca <memset>
2010485a:	40b2                	lw	ra,12(sp)
2010485c:	8522                	mv	a0,s0
2010485e:	4422                	lw	s0,8(sp)
20104860:	4492                	lw	s1,4(sp)
20104862:	4902                	lw	s2,0(sp)
20104864:	0141                	addi	sp,sp,16
20104866:	8082                	ret

20104868 <__sfp_lock_acquire>:
20104868:	88018513          	addi	a0,gp,-1920 # 20110260 <__lock___sfp_recursive_mutex>
2010486c:	a245                	j	20104a0c <__retarget_lock_acquire_recursive>

2010486e <__sfp_lock_release>:
2010486e:	88018513          	addi	a0,gp,-1920 # 20110260 <__lock___sfp_recursive_mutex>
20104872:	aa71                	j	20104a0e <__retarget_lock_release_recursive>

20104874 <__sinit_lock_acquire>:
20104874:	88418513          	addi	a0,gp,-1916 # 20110264 <__lock___sinit_recursive_mutex>
20104878:	aa51                	j	20104a0c <__retarget_lock_acquire_recursive>

2010487a <__sinit_lock_release>:
2010487a:	88418513          	addi	a0,gp,-1916 # 20110264 <__lock___sinit_recursive_mutex>
2010487e:	aa41                	j	20104a0e <__retarget_lock_release_recursive>

20104880 <__sinit>:
20104880:	1141                	addi	sp,sp,-16
20104882:	c422                	sw	s0,8(sp)
20104884:	c606                	sw	ra,12(sp)
20104886:	842a                	mv	s0,a0
20104888:	fedff0ef          	jal	ra,20104874 <__sinit_lock_acquire>
2010488c:	4c1c                	lw	a5,24(s0)
2010488e:	c791                	beqz	a5,2010489a <__sinit+0x1a>
20104890:	4422                	lw	s0,8(sp)
20104892:	40b2                	lw	ra,12(sp)
20104894:	0141                	addi	sp,sp,16
20104896:	fe5ff06f          	j	2010487a <__sinit_lock_release>
2010489a:	00000797          	auipc	a5,0x0
2010489e:	f7e78793          	addi	a5,a5,-130 # 20104818 <_cleanup_r>
201048a2:	d41c                	sw	a5,40(s0)
201048a4:	04042423          	sw	zero,72(s0)
201048a8:	04042623          	sw	zero,76(s0)
201048ac:	04042823          	sw	zero,80(s0)
201048b0:	83c1a783          	lw	a5,-1988(gp) # 2011021c <_global_impure_ptr>
201048b4:	00879463          	bne	a5,s0,201048bc <__sinit+0x3c>
201048b8:	4785                	li	a5,1
201048ba:	cc1c                	sw	a5,24(s0)
201048bc:	8522                	mv	a0,s0
201048be:	2815                	jal	201048f2 <__sfp>
201048c0:	c048                	sw	a0,4(s0)
201048c2:	8522                	mv	a0,s0
201048c4:	203d                	jal	201048f2 <__sfp>
201048c6:	c408                	sw	a0,8(s0)
201048c8:	8522                	mv	a0,s0
201048ca:	2025                	jal	201048f2 <__sfp>
201048cc:	c448                	sw	a0,12(s0)
201048ce:	4048                	lw	a0,4(s0)
201048d0:	4601                	li	a2,0
201048d2:	4591                	li	a1,4
201048d4:	edfff0ef          	jal	ra,201047b2 <std>
201048d8:	4408                	lw	a0,8(s0)
201048da:	4605                	li	a2,1
201048dc:	45a5                	li	a1,9
201048de:	ed5ff0ef          	jal	ra,201047b2 <std>
201048e2:	4448                	lw	a0,12(s0)
201048e4:	4609                	li	a2,2
201048e6:	45c9                	li	a1,18
201048e8:	ecbff0ef          	jal	ra,201047b2 <std>
201048ec:	4785                	li	a5,1
201048ee:	cc1c                	sw	a5,24(s0)
201048f0:	b745                	j	20104890 <__sinit+0x10>

201048f2 <__sfp>:
201048f2:	1141                	addi	sp,sp,-16
201048f4:	c226                	sw	s1,4(sp)
201048f6:	c04a                	sw	s2,0(sp)
201048f8:	c606                	sw	ra,12(sp)
201048fa:	c422                	sw	s0,8(sp)
201048fc:	892a                	mv	s2,a0
201048fe:	f6bff0ef          	jal	ra,20104868 <__sfp_lock_acquire>
20104902:	83c1a483          	lw	s1,-1988(gp) # 2011021c <_global_impure_ptr>
20104906:	4c9c                	lw	a5,24(s1)
20104908:	e781                	bnez	a5,20104910 <__sfp+0x1e>
2010490a:	8526                	mv	a0,s1
2010490c:	f75ff0ef          	jal	ra,20104880 <__sinit>
20104910:	04848493          	addi	s1,s1,72
20104914:	4480                	lw	s0,8(s1)
20104916:	40dc                	lw	a5,4(s1)
20104918:	17fd                	addi	a5,a5,-1
2010491a:	0007d663          	bgez	a5,20104926 <__sfp+0x34>
2010491e:	409c                	lw	a5,0(s1)
20104920:	c7a5                	beqz	a5,20104988 <__sfp+0x96>
20104922:	4084                	lw	s1,0(s1)
20104924:	bfc5                	j	20104914 <__sfp+0x22>
20104926:	00c41703          	lh	a4,12(s0)
2010492a:	ef21                	bnez	a4,20104982 <__sfp+0x90>
2010492c:	77c1                	lui	a5,0xffff0
2010492e:	0785                	addi	a5,a5,1 # ffff0001 <_eusrstack+0xdfe70001>
20104930:	c45c                	sw	a5,12(s0)
20104932:	05840513          	addi	a0,s0,88
20104936:	06042223          	sw	zero,100(s0)
2010493a:	28c1                	jal	20104a0a <__retarget_lock_init_recursive>
2010493c:	f33ff0ef          	jal	ra,2010486e <__sfp_lock_release>
20104940:	4621                	li	a2,8
20104942:	00042023          	sw	zero,0(s0)
20104946:	00042423          	sw	zero,8(s0)
2010494a:	00042223          	sw	zero,4(s0)
2010494e:	00042823          	sw	zero,16(s0)
20104952:	00042a23          	sw	zero,20(s0)
20104956:	00042c23          	sw	zero,24(s0)
2010495a:	4581                	li	a1,0
2010495c:	05c40513          	addi	a0,s0,92
20104960:	96bfb0ef          	jal	ra,201002ca <memset>
20104964:	02042a23          	sw	zero,52(s0)
20104968:	02042c23          	sw	zero,56(s0)
2010496c:	04042423          	sw	zero,72(s0)
20104970:	04042623          	sw	zero,76(s0)
20104974:	40b2                	lw	ra,12(sp)
20104976:	8522                	mv	a0,s0
20104978:	4422                	lw	s0,8(sp)
2010497a:	4492                	lw	s1,4(sp)
2010497c:	4902                	lw	s2,0(sp)
2010497e:	0141                	addi	sp,sp,16
20104980:	8082                	ret
20104982:	06840413          	addi	s0,s0,104
20104986:	bf49                	j	20104918 <__sfp+0x26>
20104988:	4591                	li	a1,4
2010498a:	854a                	mv	a0,s2
2010498c:	e97ff0ef          	jal	ra,20104822 <__sfmoreglue>
20104990:	c088                	sw	a0,0(s1)
20104992:	842a                	mv	s0,a0
20104994:	f559                	bnez	a0,20104922 <__sfp+0x30>
20104996:	ed9ff0ef          	jal	ra,2010486e <__sfp_lock_release>
2010499a:	47b1                	li	a5,12
2010499c:	00f92023          	sw	a5,0(s2)
201049a0:	bfd1                	j	20104974 <__sfp+0x82>

201049a2 <_fwalk_reent>:
201049a2:	7179                	addi	sp,sp,-48
201049a4:	d422                	sw	s0,40(sp)
201049a6:	d04a                	sw	s2,32(sp)
201049a8:	ce4e                	sw	s3,28(sp)
201049aa:	cc52                	sw	s4,24(sp)
201049ac:	c85a                	sw	s6,16(sp)
201049ae:	c65e                	sw	s7,12(sp)
201049b0:	d606                	sw	ra,44(sp)
201049b2:	d226                	sw	s1,36(sp)
201049b4:	ca56                	sw	s5,20(sp)
201049b6:	892a                	mv	s2,a0
201049b8:	8a2e                	mv	s4,a1
201049ba:	04850413          	addi	s0,a0,72
201049be:	4981                	li	s3,0
201049c0:	4b05                	li	s6,1
201049c2:	5bfd                	li	s7,-1
201049c4:	4404                	lw	s1,8(s0)
201049c6:	00442a83          	lw	s5,4(s0)
201049ca:	1afd                	addi	s5,s5,-1
201049cc:	020ad063          	bgez	s5,201049ec <_fwalk_reent+0x4a>
201049d0:	4000                	lw	s0,0(s0)
201049d2:	f86d                	bnez	s0,201049c4 <_fwalk_reent+0x22>
201049d4:	50b2                	lw	ra,44(sp)
201049d6:	5422                	lw	s0,40(sp)
201049d8:	5492                	lw	s1,36(sp)
201049da:	5902                	lw	s2,32(sp)
201049dc:	4a62                	lw	s4,24(sp)
201049de:	4ad2                	lw	s5,20(sp)
201049e0:	4b42                	lw	s6,16(sp)
201049e2:	4bb2                	lw	s7,12(sp)
201049e4:	854e                	mv	a0,s3
201049e6:	49f2                	lw	s3,28(sp)
201049e8:	6145                	addi	sp,sp,48
201049ea:	8082                	ret
201049ec:	24de                	lhu	a5,12(s1)
201049ee:	00fb7b63          	bgeu	s6,a5,20104a04 <_fwalk_reent+0x62>
201049f2:	00e49783          	lh	a5,14(s1)
201049f6:	01778763          	beq	a5,s7,20104a04 <_fwalk_reent+0x62>
201049fa:	85a6                	mv	a1,s1
201049fc:	854a                	mv	a0,s2
201049fe:	9a02                	jalr	s4
20104a00:	00a9e9b3          	or	s3,s3,a0
20104a04:	06848493          	addi	s1,s1,104
20104a08:	b7c9                	j	201049ca <_fwalk_reent+0x28>

20104a0a <__retarget_lock_init_recursive>:
20104a0a:	8082                	ret

20104a0c <__retarget_lock_acquire_recursive>:
20104a0c:	8082                	ret

20104a0e <__retarget_lock_release_recursive>:
20104a0e:	8082                	ret

20104a10 <__swhatbuf_r>:
20104a10:	7159                	addi	sp,sp,-112
20104a12:	d4a2                	sw	s0,104(sp)
20104a14:	842e                	mv	s0,a1
20104a16:	00e59583          	lh	a1,14(a1)
20104a1a:	d2a6                	sw	s1,100(sp)
20104a1c:	d0ca                	sw	s2,96(sp)
20104a1e:	d686                	sw	ra,108(sp)
20104a20:	84b2                	mv	s1,a2
20104a22:	8936                	mv	s2,a3
20104a24:	0205d263          	bgez	a1,20104a48 <__swhatbuf_r+0x38>
20104a28:	245e                	lhu	a5,12(s0)
20104a2a:	0807f793          	andi	a5,a5,128
20104a2e:	eb95                	bnez	a5,20104a62 <__swhatbuf_r+0x52>
20104a30:	40000713          	li	a4,1024
20104a34:	50b6                	lw	ra,108(sp)
20104a36:	5426                	lw	s0,104(sp)
20104a38:	00f92023          	sw	a5,0(s2)
20104a3c:	c098                	sw	a4,0(s1)
20104a3e:	5906                	lw	s2,96(sp)
20104a40:	5496                	lw	s1,100(sp)
20104a42:	4501                	li	a0,0
20104a44:	6165                	addi	sp,sp,112
20104a46:	8082                	ret
20104a48:	0030                	addi	a2,sp,8
20104a4a:	5bd000ef          	jal	ra,20105806 <_fstat_r>
20104a4e:	fc054de3          	bltz	a0,20104a28 <__swhatbuf_r+0x18>
20104a52:	4732                	lw	a4,12(sp)
20104a54:	67bd                	lui	a5,0xf
20104a56:	8ff9                	and	a5,a5,a4
20104a58:	7779                	lui	a4,0xffffe
20104a5a:	97ba                	add	a5,a5,a4
20104a5c:	0017b793          	seqz	a5,a5
20104a60:	bfc1                	j	20104a30 <__swhatbuf_r+0x20>
20104a62:	4781                	li	a5,0
20104a64:	04000713          	li	a4,64
20104a68:	b7f1                	j	20104a34 <__swhatbuf_r+0x24>

20104a6a <__smakebuf_r>:
20104a6a:	25de                	lhu	a5,12(a1)
20104a6c:	7179                	addi	sp,sp,-48
20104a6e:	d422                	sw	s0,40(sp)
20104a70:	d606                	sw	ra,44(sp)
20104a72:	d226                	sw	s1,36(sp)
20104a74:	d04a                	sw	s2,32(sp)
20104a76:	ce4e                	sw	s3,28(sp)
20104a78:	8b89                	andi	a5,a5,2
20104a7a:	842e                	mv	s0,a1
20104a7c:	cf91                	beqz	a5,20104a98 <__smakebuf_r+0x2e>
20104a7e:	04740793          	addi	a5,s0,71
20104a82:	c01c                	sw	a5,0(s0)
20104a84:	c81c                	sw	a5,16(s0)
20104a86:	4785                	li	a5,1
20104a88:	c85c                	sw	a5,20(s0)
20104a8a:	50b2                	lw	ra,44(sp)
20104a8c:	5422                	lw	s0,40(sp)
20104a8e:	5492                	lw	s1,36(sp)
20104a90:	5902                	lw	s2,32(sp)
20104a92:	49f2                	lw	s3,28(sp)
20104a94:	6145                	addi	sp,sp,48
20104a96:	8082                	ret
20104a98:	0074                	addi	a3,sp,12
20104a9a:	0030                	addi	a2,sp,8
20104a9c:	84aa                	mv	s1,a0
20104a9e:	f73ff0ef          	jal	ra,20104a10 <__swhatbuf_r>
20104aa2:	49a2                	lw	s3,8(sp)
20104aa4:	892a                	mv	s2,a0
20104aa6:	8526                	mv	a0,s1
20104aa8:	85ce                	mv	a1,s3
20104aaa:	2a89                	jal	20104bfc <_malloc_r>
20104aac:	e919                	bnez	a0,20104ac2 <__smakebuf_r+0x58>
20104aae:	00c41783          	lh	a5,12(s0)
20104ab2:	2007f713          	andi	a4,a5,512
20104ab6:	fb71                	bnez	a4,20104a8a <__smakebuf_r+0x20>
20104ab8:	9bf1                	andi	a5,a5,-4
20104aba:	0027e793          	ori	a5,a5,2
20104abe:	a45e                	sh	a5,12(s0)
20104ac0:	bf7d                	j	20104a7e <__smakebuf_r+0x14>
20104ac2:	00000797          	auipc	a5,0x0
20104ac6:	d5678793          	addi	a5,a5,-682 # 20104818 <_cleanup_r>
20104aca:	d49c                	sw	a5,40(s1)
20104acc:	245e                	lhu	a5,12(s0)
20104ace:	c008                	sw	a0,0(s0)
20104ad0:	c808                	sw	a0,16(s0)
20104ad2:	0807e793          	ori	a5,a5,128
20104ad6:	a45e                	sh	a5,12(s0)
20104ad8:	47b2                	lw	a5,12(sp)
20104ada:	01342a23          	sw	s3,20(s0)
20104ade:	cf81                	beqz	a5,20104af6 <__smakebuf_r+0x8c>
20104ae0:	00e41583          	lh	a1,14(s0)
20104ae4:	8526                	mv	a0,s1
20104ae6:	549000ef          	jal	ra,2010582e <_isatty_r>
20104aea:	c511                	beqz	a0,20104af6 <__smakebuf_r+0x8c>
20104aec:	245e                	lhu	a5,12(s0)
20104aee:	9bf1                	andi	a5,a5,-4
20104af0:	0017e793          	ori	a5,a5,1
20104af4:	a45e                	sh	a5,12(s0)
20104af6:	245e                	lhu	a5,12(s0)
20104af8:	0127e533          	or	a0,a5,s2
20104afc:	a44a                	sh	a0,12(s0)
20104afe:	b771                	j	20104a8a <__smakebuf_r+0x20>

20104b00 <_free_r>:
20104b00:	c1c5                	beqz	a1,20104ba0 <_free_r+0xa0>
20104b02:	ffc5a783          	lw	a5,-4(a1)
20104b06:	1101                	addi	sp,sp,-32
20104b08:	cc22                	sw	s0,24(sp)
20104b0a:	ce06                	sw	ra,28(sp)
20104b0c:	ffc58413          	addi	s0,a1,-4
20104b10:	0007d363          	bgez	a5,20104b16 <_free_r+0x16>
20104b14:	943e                	add	s0,s0,a5
20104b16:	c62a                	sw	a0,12(sp)
20104b18:	57f000ef          	jal	ra,20105896 <__malloc_lock>
20104b1c:	88c18713          	addi	a4,gp,-1908 # 2011026c <__malloc_free_list>
20104b20:	431c                	lw	a5,0(a4)
20104b22:	4532                	lw	a0,12(sp)
20104b24:	eb89                	bnez	a5,20104b36 <_free_r+0x36>
20104b26:	00042223          	sw	zero,4(s0)
20104b2a:	c300                	sw	s0,0(a4)
20104b2c:	4462                	lw	s0,24(sp)
20104b2e:	40f2                	lw	ra,28(sp)
20104b30:	6105                	addi	sp,sp,32
20104b32:	56d0006f          	j	2010589e <__malloc_unlock>
20104b36:	00f47d63          	bgeu	s0,a5,20104b50 <_free_r+0x50>
20104b3a:	4010                	lw	a2,0(s0)
20104b3c:	00c406b3          	add	a3,s0,a2
20104b40:	00d79663          	bne	a5,a3,20104b4c <_free_r+0x4c>
20104b44:	4394                	lw	a3,0(a5)
20104b46:	43dc                	lw	a5,4(a5)
20104b48:	96b2                	add	a3,a3,a2
20104b4a:	c014                	sw	a3,0(s0)
20104b4c:	c05c                	sw	a5,4(s0)
20104b4e:	bff1                	j	20104b2a <_free_r+0x2a>
20104b50:	873e                	mv	a4,a5
20104b52:	43dc                	lw	a5,4(a5)
20104b54:	c399                	beqz	a5,20104b5a <_free_r+0x5a>
20104b56:	fef47de3          	bgeu	s0,a5,20104b50 <_free_r+0x50>
20104b5a:	4314                	lw	a3,0(a4)
20104b5c:	00d70633          	add	a2,a4,a3
20104b60:	00861f63          	bne	a2,s0,20104b7e <_free_r+0x7e>
20104b64:	4010                	lw	a2,0(s0)
20104b66:	96b2                	add	a3,a3,a2
20104b68:	c314                	sw	a3,0(a4)
20104b6a:	00d70633          	add	a2,a4,a3
20104b6e:	fac79fe3          	bne	a5,a2,20104b2c <_free_r+0x2c>
20104b72:	4390                	lw	a2,0(a5)
20104b74:	43dc                	lw	a5,4(a5)
20104b76:	96b2                	add	a3,a3,a2
20104b78:	c314                	sw	a3,0(a4)
20104b7a:	c35c                	sw	a5,4(a4)
20104b7c:	bf45                	j	20104b2c <_free_r+0x2c>
20104b7e:	00c47563          	bgeu	s0,a2,20104b88 <_free_r+0x88>
20104b82:	47b1                	li	a5,12
20104b84:	c11c                	sw	a5,0(a0)
20104b86:	b75d                	j	20104b2c <_free_r+0x2c>
20104b88:	4010                	lw	a2,0(s0)
20104b8a:	00c406b3          	add	a3,s0,a2
20104b8e:	00d79663          	bne	a5,a3,20104b9a <_free_r+0x9a>
20104b92:	4394                	lw	a3,0(a5)
20104b94:	43dc                	lw	a5,4(a5)
20104b96:	96b2                	add	a3,a3,a2
20104b98:	c014                	sw	a3,0(s0)
20104b9a:	c05c                	sw	a5,4(s0)
20104b9c:	c340                	sw	s0,4(a4)
20104b9e:	b779                	j	20104b2c <_free_r+0x2c>
20104ba0:	8082                	ret

20104ba2 <sbrk_aligned>:
20104ba2:	1141                	addi	sp,sp,-16
20104ba4:	c04a                	sw	s2,0(sp)
20104ba6:	88818913          	addi	s2,gp,-1912 # 20110268 <__malloc_sbrk_start>
20104baa:	00092783          	lw	a5,0(s2)
20104bae:	c422                	sw	s0,8(sp)
20104bb0:	c226                	sw	s1,4(sp)
20104bb2:	c606                	sw	ra,12(sp)
20104bb4:	84aa                	mv	s1,a0
20104bb6:	842e                	mv	s0,a1
20104bb8:	e791                	bnez	a5,20104bc4 <sbrk_aligned+0x22>
20104bba:	4581                	li	a1,0
20104bbc:	32d000ef          	jal	ra,201056e8 <_sbrk_r>
20104bc0:	00a92023          	sw	a0,0(s2)
20104bc4:	85a2                	mv	a1,s0
20104bc6:	8526                	mv	a0,s1
20104bc8:	321000ef          	jal	ra,201056e8 <_sbrk_r>
20104bcc:	597d                	li	s2,-1
20104bce:	01251a63          	bne	a0,s2,20104be2 <sbrk_aligned+0x40>
20104bd2:	547d                	li	s0,-1
20104bd4:	40b2                	lw	ra,12(sp)
20104bd6:	8522                	mv	a0,s0
20104bd8:	4422                	lw	s0,8(sp)
20104bda:	4492                	lw	s1,4(sp)
20104bdc:	4902                	lw	s2,0(sp)
20104bde:	0141                	addi	sp,sp,16
20104be0:	8082                	ret
20104be2:	00350413          	addi	s0,a0,3
20104be6:	9871                	andi	s0,s0,-4
20104be8:	fe8506e3          	beq	a0,s0,20104bd4 <sbrk_aligned+0x32>
20104bec:	40a405b3          	sub	a1,s0,a0
20104bf0:	8526                	mv	a0,s1
20104bf2:	2f7000ef          	jal	ra,201056e8 <_sbrk_r>
20104bf6:	fd251fe3          	bne	a0,s2,20104bd4 <sbrk_aligned+0x32>
20104bfa:	bfe1                	j	20104bd2 <sbrk_aligned+0x30>

20104bfc <_malloc_r>:
20104bfc:	1101                	addi	sp,sp,-32
20104bfe:	ca26                	sw	s1,20(sp)
20104c00:	00358493          	addi	s1,a1,3
20104c04:	98f1                	andi	s1,s1,-4
20104c06:	c84a                	sw	s2,16(sp)
20104c08:	04a1                	addi	s1,s1,8
20104c0a:	47b1                	li	a5,12
20104c0c:	ce06                	sw	ra,28(sp)
20104c0e:	cc22                	sw	s0,24(sp)
20104c10:	c64e                	sw	s3,12(sp)
20104c12:	892a                	mv	s2,a0
20104c14:	0af4f4b3          	maxu	s1,s1,a5
20104c18:	0004c463          	bltz	s1,20104c20 <_malloc_r+0x24>
20104c1c:	00b4fd63          	bgeu	s1,a1,20104c36 <_malloc_r+0x3a>
20104c20:	47b1                	li	a5,12
20104c22:	00f92023          	sw	a5,0(s2)
20104c26:	4501                	li	a0,0
20104c28:	40f2                	lw	ra,28(sp)
20104c2a:	4462                	lw	s0,24(sp)
20104c2c:	44d2                	lw	s1,20(sp)
20104c2e:	4942                	lw	s2,16(sp)
20104c30:	49b2                	lw	s3,12(sp)
20104c32:	6105                	addi	sp,sp,32
20104c34:	8082                	ret
20104c36:	461000ef          	jal	ra,20105896 <__malloc_lock>
20104c3a:	88c18993          	addi	s3,gp,-1908 # 2011026c <__malloc_free_list>
20104c3e:	0009a783          	lw	a5,0(s3)
20104c42:	843e                	mv	s0,a5
20104c44:	e829                	bnez	s0,20104c96 <_malloc_r+0x9a>
20104c46:	85a6                	mv	a1,s1
20104c48:	854a                	mv	a0,s2
20104c4a:	f59ff0ef          	jal	ra,20104ba2 <sbrk_aligned>
20104c4e:	57fd                	li	a5,-1
20104c50:	842a                	mv	s0,a0
20104c52:	0af51a63          	bne	a0,a5,20104d06 <_malloc_r+0x10a>
20104c56:	0009a403          	lw	s0,0(s3)
20104c5a:	87a2                	mv	a5,s0
20104c5c:	ebd9                	bnez	a5,20104cf2 <_malloc_r+0xf6>
20104c5e:	00042983          	lw	s3,0(s0)
20104c62:	4581                	li	a1,0
20104c64:	854a                	mv	a0,s2
20104c66:	99a2                	add	s3,s3,s0
20104c68:	281000ef          	jal	ra,201056e8 <_sbrk_r>
20104c6c:	08a99663          	bne	s3,a0,20104cf8 <_malloc_r+0xfc>
20104c70:	401c                	lw	a5,0(s0)
20104c72:	048d                	addi	s1,s1,3
20104c74:	854a                	mv	a0,s2
20104c76:	8c9d                	sub	s1,s1,a5
20104c78:	98f1                	andi	s1,s1,-4
20104c7a:	47b1                	li	a5,12
20104c7c:	04a1                	addi	s1,s1,8
20104c7e:	0af4f4b3          	maxu	s1,s1,a5
20104c82:	85a6                	mv	a1,s1
20104c84:	f1fff0ef          	jal	ra,20104ba2 <sbrk_aligned>
20104c88:	57fd                	li	a5,-1
20104c8a:	06f50763          	beq	a0,a5,20104cf8 <_malloc_r+0xfc>
20104c8e:	401c                	lw	a5,0(s0)
20104c90:	97a6                	add	a5,a5,s1
20104c92:	c01c                	sw	a5,0(s0)
20104c94:	a015                	j	20104cb8 <_malloc_r+0xbc>
20104c96:	4014                	lw	a3,0(s0)
20104c98:	8e85                	sub	a3,a3,s1
20104c9a:	0406c963          	bltz	a3,20104cec <_malloc_r+0xf0>
20104c9e:	472d                	li	a4,11
20104ca0:	02d77e63          	bgeu	a4,a3,20104cdc <_malloc_r+0xe0>
20104ca4:	c004                	sw	s1,0(s0)
20104ca6:	00940733          	add	a4,s0,s1
20104caa:	02879763          	bne	a5,s0,20104cd8 <_malloc_r+0xdc>
20104cae:	00e9a023          	sw	a4,0(s3)
20104cb2:	405c                	lw	a5,4(s0)
20104cb4:	c314                	sw	a3,0(a4)
20104cb6:	c35c                	sw	a5,4(a4)
20104cb8:	854a                	mv	a0,s2
20104cba:	3e5000ef          	jal	ra,2010589e <__malloc_unlock>
20104cbe:	00b40513          	addi	a0,s0,11
20104cc2:	00440793          	addi	a5,s0,4
20104cc6:	9961                	andi	a0,a0,-8
20104cc8:	40f50733          	sub	a4,a0,a5
20104ccc:	f4f50ee3          	beq	a0,a5,20104c28 <_malloc_r+0x2c>
20104cd0:	943a                	add	s0,s0,a4
20104cd2:	8f89                	sub	a5,a5,a0
20104cd4:	c01c                	sw	a5,0(s0)
20104cd6:	bf89                	j	20104c28 <_malloc_r+0x2c>
20104cd8:	c3d8                	sw	a4,4(a5)
20104cda:	bfe1                	j	20104cb2 <_malloc_r+0xb6>
20104cdc:	4058                	lw	a4,4(s0)
20104cde:	00879563          	bne	a5,s0,20104ce8 <_malloc_r+0xec>
20104ce2:	00e9a023          	sw	a4,0(s3)
20104ce6:	bfc9                	j	20104cb8 <_malloc_r+0xbc>
20104ce8:	c3d8                	sw	a4,4(a5)
20104cea:	b7f9                	j	20104cb8 <_malloc_r+0xbc>
20104cec:	87a2                	mv	a5,s0
20104cee:	4040                	lw	s0,4(s0)
20104cf0:	bf91                	j	20104c44 <_malloc_r+0x48>
20104cf2:	843e                	mv	s0,a5
20104cf4:	43dc                	lw	a5,4(a5)
20104cf6:	b79d                	j	20104c5c <_malloc_r+0x60>
20104cf8:	47b1                	li	a5,12
20104cfa:	00f92023          	sw	a5,0(s2)
20104cfe:	854a                	mv	a0,s2
20104d00:	39f000ef          	jal	ra,2010589e <__malloc_unlock>
20104d04:	b70d                	j	20104c26 <_malloc_r+0x2a>
20104d06:	c104                	sw	s1,0(a0)
20104d08:	bf45                	j	20104cb8 <_malloc_r+0xbc>

20104d0a <__ssputs_r>:
20104d0a:	1101                	addi	sp,sp,-32
20104d0c:	c84a                	sw	s2,16(sp)
20104d0e:	0085a903          	lw	s2,8(a1)
20104d12:	cc22                	sw	s0,24(sp)
20104d14:	c64e                	sw	s3,12(sp)
20104d16:	c452                	sw	s4,8(sp)
20104d18:	c256                	sw	s5,4(sp)
20104d1a:	ce06                	sw	ra,28(sp)
20104d1c:	ca26                	sw	s1,20(sp)
20104d1e:	c05a                	sw	s6,0(sp)
20104d20:	0005aa03          	lw	s4,0(a1)
20104d24:	842e                	mv	s0,a1
20104d26:	8ab2                	mv	s5,a2
20104d28:	89b6                	mv	s3,a3
20104d2a:	0726e563          	bltu	a3,s2,20104d94 <__ssputs_r+0x8a>
20104d2e:	00c59783          	lh	a5,12(a1)
20104d32:	4807f713          	andi	a4,a5,1152
20104d36:	cf29                	beqz	a4,20104d90 <__ssputs_r+0x86>
20104d38:	4858                	lw	a4,20(s0)
20104d3a:	448d                	li	s1,3
20104d3c:	498c                	lw	a1,16(a1)
20104d3e:	02e484b3          	mul	s1,s1,a4
20104d42:	4709                	li	a4,2
20104d44:	40ba0a33          	sub	s4,s4,a1
20104d48:	4007f793          	andi	a5,a5,1024
20104d4c:	8b2a                	mv	s6,a0
20104d4e:	02e4c4b3          	div	s1,s1,a4
20104d52:	00168713          	addi	a4,a3,1
20104d56:	9752                	add	a4,a4,s4
20104d58:	0ae4f4b3          	maxu	s1,s1,a4
20104d5c:	c7a5                	beqz	a5,20104dc4 <__ssputs_r+0xba>
20104d5e:	85a6                	mv	a1,s1
20104d60:	e9dff0ef          	jal	ra,20104bfc <_malloc_r>
20104d64:	892a                	mv	s2,a0
20104d66:	c925                	beqz	a0,20104dd6 <__ssputs_r+0xcc>
20104d68:	480c                	lw	a1,16(s0)
20104d6a:	8652                	mv	a2,s4
20104d6c:	d48fb0ef          	jal	ra,201002b4 <memcpy>
20104d70:	245e                	lhu	a5,12(s0)
20104d72:	b7f7f793          	andi	a5,a5,-1153
20104d76:	0807e793          	ori	a5,a5,128
20104d7a:	a45e                	sh	a5,12(s0)
20104d7c:	01242823          	sw	s2,16(s0)
20104d80:	c844                	sw	s1,20(s0)
20104d82:	9952                	add	s2,s2,s4
20104d84:	414484b3          	sub	s1,s1,s4
20104d88:	01242023          	sw	s2,0(s0)
20104d8c:	c404                	sw	s1,8(s0)
20104d8e:	894e                	mv	s2,s3
20104d90:	0129f363          	bgeu	s3,s2,20104d96 <__ssputs_r+0x8c>
20104d94:	894e                	mv	s2,s3
20104d96:	4008                	lw	a0,0(s0)
20104d98:	864a                	mv	a2,s2
20104d9a:	85d6                	mv	a1,s5
20104d9c:	d52fb0ef          	jal	ra,201002ee <memmove>
20104da0:	441c                	lw	a5,8(s0)
20104da2:	4501                	li	a0,0
20104da4:	412787b3          	sub	a5,a5,s2
20104da8:	c41c                	sw	a5,8(s0)
20104daa:	401c                	lw	a5,0(s0)
20104dac:	97ca                	add	a5,a5,s2
20104dae:	c01c                	sw	a5,0(s0)
20104db0:	40f2                	lw	ra,28(sp)
20104db2:	4462                	lw	s0,24(sp)
20104db4:	44d2                	lw	s1,20(sp)
20104db6:	4942                	lw	s2,16(sp)
20104db8:	49b2                	lw	s3,12(sp)
20104dba:	4a22                	lw	s4,8(sp)
20104dbc:	4a92                	lw	s5,4(sp)
20104dbe:	4b02                	lw	s6,0(sp)
20104dc0:	6105                	addi	sp,sp,32
20104dc2:	8082                	ret
20104dc4:	8626                	mv	a2,s1
20104dc6:	2e1000ef          	jal	ra,201058a6 <_realloc_r>
20104dca:	892a                	mv	s2,a0
20104dcc:	f945                	bnez	a0,20104d7c <__ssputs_r+0x72>
20104dce:	480c                	lw	a1,16(s0)
20104dd0:	855a                	mv	a0,s6
20104dd2:	d2fff0ef          	jal	ra,20104b00 <_free_r>
20104dd6:	47b1                	li	a5,12
20104dd8:	00fb2023          	sw	a5,0(s6)
20104ddc:	245e                	lhu	a5,12(s0)
20104dde:	557d                	li	a0,-1
20104de0:	0407e793          	ori	a5,a5,64
20104de4:	a45e                	sh	a5,12(s0)
20104de6:	b7e9                	j	20104db0 <__ssputs_r+0xa6>

20104de8 <_svfiprintf_r>:
20104de8:	25de                	lhu	a5,12(a1)
20104dea:	7135                	addi	sp,sp,-160
20104dec:	cd22                	sw	s0,152(sp)
20104dee:	cb26                	sw	s1,148(sp)
20104df0:	c94a                	sw	s2,144(sp)
20104df2:	c552                	sw	s4,136(sp)
20104df4:	cf06                	sw	ra,156(sp)
20104df6:	c74e                	sw	s3,140(sp)
20104df8:	c356                	sw	s5,132(sp)
20104dfa:	c15a                	sw	s6,128(sp)
20104dfc:	dede                	sw	s7,124(sp)
20104dfe:	dce2                	sw	s8,120(sp)
20104e00:	0807f793          	andi	a5,a5,128
20104e04:	8a2a                	mv	s4,a0
20104e06:	892e                	mv	s2,a1
20104e08:	84b2                	mv	s1,a2
20104e0a:	8436                	mv	s0,a3
20104e0c:	c3a1                	beqz	a5,20104e4c <_svfiprintf_r+0x64>
20104e0e:	499c                	lw	a5,16(a1)
20104e10:	ef95                	bnez	a5,20104e4c <_svfiprintf_r+0x64>
20104e12:	04000593          	li	a1,64
20104e16:	de7ff0ef          	jal	ra,20104bfc <_malloc_r>
20104e1a:	00a92023          	sw	a0,0(s2)
20104e1e:	00a92823          	sw	a0,16(s2)
20104e22:	e10d                	bnez	a0,20104e44 <_svfiprintf_r+0x5c>
20104e24:	47b1                	li	a5,12
20104e26:	00fa2023          	sw	a5,0(s4)
20104e2a:	557d                	li	a0,-1
20104e2c:	40fa                	lw	ra,156(sp)
20104e2e:	446a                	lw	s0,152(sp)
20104e30:	44da                	lw	s1,148(sp)
20104e32:	494a                	lw	s2,144(sp)
20104e34:	49ba                	lw	s3,140(sp)
20104e36:	4a2a                	lw	s4,136(sp)
20104e38:	4a9a                	lw	s5,132(sp)
20104e3a:	4b0a                	lw	s6,128(sp)
20104e3c:	5bf6                	lw	s7,124(sp)
20104e3e:	5c66                	lw	s8,120(sp)
20104e40:	610d                	addi	sp,sp,160
20104e42:	8082                	ret
20104e44:	04000793          	li	a5,64
20104e48:	00f92a23          	sw	a5,20(s2)
20104e4c:	02000793          	li	a5,32
20104e50:	02f104a3          	sb	a5,41(sp)
20104e54:	03000793          	li	a5,48
20104e58:	d202                	sw	zero,36(sp)
20104e5a:	02f10523          	sb	a5,42(sp)
20104e5e:	c622                	sw	s0,12(sp)
20104e60:	02500b93          	li	s7,37
20104e64:	00001a97          	auipc	s5,0x1
20104e68:	398a8a93          	addi	s5,s5,920 # 201061fc <__sf_fake_stdin+0x20>
20104e6c:	4b29                	li	s6,10
20104e6e:	8426                	mv	s0,s1
20104e70:	201c                	lbu	a5,0(s0)
20104e72:	c399                	beqz	a5,20104e78 <_svfiprintf_r+0x90>
20104e74:	09779963          	bne	a5,s7,20104f06 <_svfiprintf_r+0x11e>
20104e78:	40940c33          	sub	s8,s0,s1
20104e7c:	00940e63          	beq	s0,s1,20104e98 <_svfiprintf_r+0xb0>
20104e80:	86e2                	mv	a3,s8
20104e82:	8626                	mv	a2,s1
20104e84:	85ca                	mv	a1,s2
20104e86:	8552                	mv	a0,s4
20104e88:	e83ff0ef          	jal	ra,20104d0a <__ssputs_r>
20104e8c:	57fd                	li	a5,-1
20104e8e:	18f50763          	beq	a0,a5,2010501c <_svfiprintf_r+0x234>
20104e92:	5792                	lw	a5,36(sp)
20104e94:	97e2                	add	a5,a5,s8
20104e96:	d23e                	sw	a5,36(sp)
20104e98:	201c                	lbu	a5,0(s0)
20104e9a:	18078163          	beqz	a5,2010501c <_svfiprintf_r+0x234>
20104e9e:	57fd                	li	a5,-1
20104ea0:	00140493          	addi	s1,s0,1
20104ea4:	c802                	sw	zero,16(sp)
20104ea6:	ce02                	sw	zero,28(sp)
20104ea8:	ca3e                	sw	a5,20(sp)
20104eaa:	cc02                	sw	zero,24(sp)
20104eac:	040109a3          	sb	zero,83(sp)
20104eb0:	d482                	sw	zero,104(sp)
20104eb2:	208c                	lbu	a1,0(s1)
20104eb4:	4615                	li	a2,5
20104eb6:	8556                	mv	a0,s5
20104eb8:	1c7000ef          	jal	ra,2010587e <memchr>
20104ebc:	47c2                	lw	a5,16(sp)
20104ebe:	00148413          	addi	s0,s1,1
20104ec2:	e521                	bnez	a0,20104f0a <_svfiprintf_r+0x122>
20104ec4:	0107f713          	andi	a4,a5,16
20104ec8:	c709                	beqz	a4,20104ed2 <_svfiprintf_r+0xea>
20104eca:	02000713          	li	a4,32
20104ece:	04e109a3          	sb	a4,83(sp)
20104ed2:	0087f713          	andi	a4,a5,8
20104ed6:	c709                	beqz	a4,20104ee0 <_svfiprintf_r+0xf8>
20104ed8:	02b00713          	li	a4,43
20104edc:	04e109a3          	sb	a4,83(sp)
20104ee0:	2094                	lbu	a3,0(s1)
20104ee2:	02a00713          	li	a4,42
20104ee6:	02e68963          	beq	a3,a4,20104f18 <_svfiprintf_r+0x130>
20104eea:	47f2                	lw	a5,28(sp)
20104eec:	8426                	mv	s0,s1
20104eee:	4681                	li	a3,0
20104ef0:	4625                	li	a2,9
20104ef2:	2018                	lbu	a4,0(s0)
20104ef4:	00140593          	addi	a1,s0,1
20104ef8:	fd070713          	addi	a4,a4,-48 # ffffdfd0 <_eusrstack+0xdfe7dfd0>
20104efc:	06e67263          	bgeu	a2,a4,20104f60 <_svfiprintf_r+0x178>
20104f00:	c685                	beqz	a3,20104f28 <_svfiprintf_r+0x140>
20104f02:	ce3e                	sw	a5,28(sp)
20104f04:	a015                	j	20104f28 <_svfiprintf_r+0x140>
20104f06:	0405                	addi	s0,s0,1
20104f08:	b7a5                	j	20104e70 <_svfiprintf_r+0x88>
20104f0a:	41550533          	sub	a0,a0,s5
20104f0e:	28a797b3          	bset	a5,a5,a0
20104f12:	84a2                	mv	s1,s0
20104f14:	c83e                	sw	a5,16(sp)
20104f16:	bf71                	j	20104eb2 <_svfiprintf_r+0xca>
20104f18:	4732                	lw	a4,12(sp)
20104f1a:	00470693          	addi	a3,a4,4
20104f1e:	4318                	lw	a4,0(a4)
20104f20:	c636                	sw	a3,12(sp)
20104f22:	02074863          	bltz	a4,20104f52 <_svfiprintf_r+0x16a>
20104f26:	ce3a                	sw	a4,28(sp)
20104f28:	2018                	lbu	a4,0(s0)
20104f2a:	02e00793          	li	a5,46
20104f2e:	04f71c63          	bne	a4,a5,20104f86 <_svfiprintf_r+0x19e>
20104f32:	3018                	lbu	a4,1(s0)
20104f34:	02a00793          	li	a5,42
20104f38:	02f71a63          	bne	a4,a5,20104f6c <_svfiprintf_r+0x184>
20104f3c:	47b2                	lw	a5,12(sp)
20104f3e:	0409                	addi	s0,s0,2
20104f40:	00478713          	addi	a4,a5,4
20104f44:	439c                	lw	a5,0(a5)
20104f46:	c63a                	sw	a4,12(sp)
20104f48:	577d                	li	a4,-1
20104f4a:	0ae7e7b3          	max	a5,a5,a4
20104f4e:	ca3e                	sw	a5,20(sp)
20104f50:	a81d                	j	20104f86 <_svfiprintf_r+0x19e>
20104f52:	40e00733          	neg	a4,a4
20104f56:	0027e793          	ori	a5,a5,2
20104f5a:	ce3a                	sw	a4,28(sp)
20104f5c:	c83e                	sw	a5,16(sp)
20104f5e:	b7e9                	j	20104f28 <_svfiprintf_r+0x140>
20104f60:	036787b3          	mul	a5,a5,s6
20104f64:	842e                	mv	s0,a1
20104f66:	4685                	li	a3,1
20104f68:	97ba                	add	a5,a5,a4
20104f6a:	b761                	j	20104ef2 <_svfiprintf_r+0x10a>
20104f6c:	0405                	addi	s0,s0,1
20104f6e:	ca02                	sw	zero,20(sp)
20104f70:	4681                	li	a3,0
20104f72:	4781                	li	a5,0
20104f74:	4625                	li	a2,9
20104f76:	2018                	lbu	a4,0(s0)
20104f78:	00140593          	addi	a1,s0,1
20104f7c:	fd070713          	addi	a4,a4,-48
20104f80:	06e67463          	bgeu	a2,a4,20104fe8 <_svfiprintf_r+0x200>
20104f84:	f6e9                	bnez	a3,20104f4e <_svfiprintf_r+0x166>
20104f86:	200c                	lbu	a1,0(s0)
20104f88:	460d                	li	a2,3
20104f8a:	00001517          	auipc	a0,0x1
20104f8e:	27a50513          	addi	a0,a0,634 # 20106204 <__sf_fake_stdin+0x28>
20104f92:	0ed000ef          	jal	ra,2010587e <memchr>
20104f96:	cd11                	beqz	a0,20104fb2 <_svfiprintf_r+0x1ca>
20104f98:	00001797          	auipc	a5,0x1
20104f9c:	26c78793          	addi	a5,a5,620 # 20106204 <__sf_fake_stdin+0x28>
20104fa0:	8d1d                	sub	a0,a0,a5
20104fa2:	47c2                	lw	a5,16(sp)
20104fa4:	04000713          	li	a4,64
20104fa8:	00a71733          	sll	a4,a4,a0
20104fac:	8fd9                	or	a5,a5,a4
20104fae:	0405                	addi	s0,s0,1
20104fb0:	c83e                	sw	a5,16(sp)
20104fb2:	200c                	lbu	a1,0(s0)
20104fb4:	4619                	li	a2,6
20104fb6:	00001517          	auipc	a0,0x1
20104fba:	25250513          	addi	a0,a0,594 # 20106208 <__sf_fake_stdin+0x2c>
20104fbe:	00140493          	addi	s1,s0,1
20104fc2:	02b10423          	sb	a1,40(sp)
20104fc6:	0b9000ef          	jal	ra,2010587e <memchr>
20104fca:	c12d                	beqz	a0,2010502c <_svfiprintf_r+0x244>
20104fcc:	00000793          	li	a5,0
20104fd0:	e795                	bnez	a5,20104ffc <_svfiprintf_r+0x214>
20104fd2:	4742                	lw	a4,16(sp)
20104fd4:	47b2                	lw	a5,12(sp)
20104fd6:	10077713          	andi	a4,a4,256
20104fda:	cf09                	beqz	a4,20104ff4 <_svfiprintf_r+0x20c>
20104fdc:	0791                	addi	a5,a5,4
20104fde:	c63e                	sw	a5,12(sp)
20104fe0:	5792                	lw	a5,36(sp)
20104fe2:	97ce                	add	a5,a5,s3
20104fe4:	d23e                	sw	a5,36(sp)
20104fe6:	b561                	j	20104e6e <_svfiprintf_r+0x86>
20104fe8:	036787b3          	mul	a5,a5,s6
20104fec:	842e                	mv	s0,a1
20104fee:	4685                	li	a3,1
20104ff0:	97ba                	add	a5,a5,a4
20104ff2:	b751                	j	20104f76 <_svfiprintf_r+0x18e>
20104ff4:	079d                	addi	a5,a5,7
20104ff6:	9be1                	andi	a5,a5,-8
20104ff8:	07a1                	addi	a5,a5,8
20104ffa:	b7d5                	j	20104fde <_svfiprintf_r+0x1f6>
20104ffc:	0078                	addi	a4,sp,12
20104ffe:	00000697          	auipc	a3,0x0
20105002:	d0c68693          	addi	a3,a3,-756 # 20104d0a <__ssputs_r>
20105006:	864a                	mv	a2,s2
20105008:	080c                	addi	a1,sp,16
2010500a:	8552                	mv	a0,s4
2010500c:	00000097          	auipc	ra,0x0
20105010:	000000e7          	jalr	zero # 0 <_sinit>
20105014:	57fd                	li	a5,-1
20105016:	89aa                	mv	s3,a0
20105018:	fcf514e3          	bne	a0,a5,20104fe0 <_svfiprintf_r+0x1f8>
2010501c:	00c95783          	lhu	a5,12(s2)
20105020:	0407f793          	andi	a5,a5,64
20105024:	e00793e3          	bnez	a5,20104e2a <_svfiprintf_r+0x42>
20105028:	5512                	lw	a0,36(sp)
2010502a:	b509                	j	20104e2c <_svfiprintf_r+0x44>
2010502c:	0078                	addi	a4,sp,12
2010502e:	00000697          	auipc	a3,0x0
20105032:	cdc68693          	addi	a3,a3,-804 # 20104d0a <__ssputs_r>
20105036:	864a                	mv	a2,s2
20105038:	080c                	addi	a1,sp,16
2010503a:	8552                	mv	a0,s4
2010503c:	2239                	jal	2010514a <_printf_i>
2010503e:	bfd9                	j	20105014 <_svfiprintf_r+0x22c>

20105040 <_printf_common>:
20105040:	7179                	addi	sp,sp,-48
20105042:	ca56                	sw	s5,20(sp)
20105044:	499c                	lw	a5,16(a1)
20105046:	8aba                	mv	s5,a4
20105048:	4598                	lw	a4,8(a1)
2010504a:	d422                	sw	s0,40(sp)
2010504c:	d04a                	sw	s2,32(sp)
2010504e:	ce4e                	sw	s3,28(sp)
20105050:	cc52                	sw	s4,24(sp)
20105052:	d606                	sw	ra,44(sp)
20105054:	d226                	sw	s1,36(sp)
20105056:	c85a                	sw	s6,16(sp)
20105058:	c65e                	sw	s7,12(sp)
2010505a:	0ae7e7b3          	max	a5,a5,a4
2010505e:	c21c                	sw	a5,0(a2)
20105060:	0435c703          	lbu	a4,67(a1)
20105064:	89aa                	mv	s3,a0
20105066:	842e                	mv	s0,a1
20105068:	8932                	mv	s2,a2
2010506a:	8a36                	mv	s4,a3
2010506c:	c319                	beqz	a4,20105072 <_printf_common+0x32>
2010506e:	0785                	addi	a5,a5,1
20105070:	c21c                	sw	a5,0(a2)
20105072:	401c                	lw	a5,0(s0)
20105074:	0207f793          	andi	a5,a5,32
20105078:	c791                	beqz	a5,20105084 <_printf_common+0x44>
2010507a:	00092783          	lw	a5,0(s2)
2010507e:	0789                	addi	a5,a5,2
20105080:	00f92023          	sw	a5,0(s2)
20105084:	4004                	lw	s1,0(s0)
20105086:	8899                	andi	s1,s1,6
20105088:	e891                	bnez	s1,2010509c <_printf_common+0x5c>
2010508a:	01940b13          	addi	s6,s0,25
2010508e:	5bfd                	li	s7,-1
20105090:	445c                	lw	a5,12(s0)
20105092:	00092703          	lw	a4,0(s2)
20105096:	8f99                	sub	a5,a5,a4
20105098:	04f4cc63          	blt	s1,a5,201050f0 <_printf_common+0xb0>
2010509c:	04344783          	lbu	a5,67(s0)
201050a0:	00f036b3          	snez	a3,a5
201050a4:	401c                	lw	a5,0(s0)
201050a6:	0207f793          	andi	a5,a5,32
201050aa:	eba5                	bnez	a5,2010511a <_printf_common+0xda>
201050ac:	04340613          	addi	a2,s0,67
201050b0:	85d2                	mv	a1,s4
201050b2:	854e                	mv	a0,s3
201050b4:	9a82                	jalr	s5
201050b6:	57fd                	li	a5,-1
201050b8:	04f50363          	beq	a0,a5,201050fe <_printf_common+0xbe>
201050bc:	401c                	lw	a5,0(s0)
201050be:	4711                	li	a4,4
201050c0:	4481                	li	s1,0
201050c2:	8b99                	andi	a5,a5,6
201050c4:	00e79963          	bne	a5,a4,201050d6 <_printf_common+0x96>
201050c8:	00092783          	lw	a5,0(s2)
201050cc:	4444                	lw	s1,12(s0)
201050ce:	8c9d                	sub	s1,s1,a5
201050d0:	4781                	li	a5,0
201050d2:	0af4e4b3          	max	s1,s1,a5
201050d6:	441c                	lw	a5,8(s0)
201050d8:	4818                	lw	a4,16(s0)
201050da:	00f75463          	bge	a4,a5,201050e2 <_printf_common+0xa2>
201050de:	8f99                	sub	a5,a5,a4
201050e0:	94be                	add	s1,s1,a5
201050e2:	4901                	li	s2,0
201050e4:	0469                	addi	s0,s0,26
201050e6:	5b7d                	li	s6,-1
201050e8:	05249863          	bne	s1,s2,20105138 <_printf_common+0xf8>
201050ec:	4501                	li	a0,0
201050ee:	a809                	j	20105100 <_printf_common+0xc0>
201050f0:	4685                	li	a3,1
201050f2:	865a                	mv	a2,s6
201050f4:	85d2                	mv	a1,s4
201050f6:	854e                	mv	a0,s3
201050f8:	9a82                	jalr	s5
201050fa:	01751e63          	bne	a0,s7,20105116 <_printf_common+0xd6>
201050fe:	557d                	li	a0,-1
20105100:	50b2                	lw	ra,44(sp)
20105102:	5422                	lw	s0,40(sp)
20105104:	5492                	lw	s1,36(sp)
20105106:	5902                	lw	s2,32(sp)
20105108:	49f2                	lw	s3,28(sp)
2010510a:	4a62                	lw	s4,24(sp)
2010510c:	4ad2                	lw	s5,20(sp)
2010510e:	4b42                	lw	s6,16(sp)
20105110:	4bb2                	lw	s7,12(sp)
20105112:	6145                	addi	sp,sp,48
20105114:	8082                	ret
20105116:	0485                	addi	s1,s1,1
20105118:	bfa5                	j	20105090 <_printf_common+0x50>
2010511a:	00d40733          	add	a4,s0,a3
2010511e:	03000613          	li	a2,48
20105122:	04c701a3          	sb	a2,67(a4)
20105126:	04544703          	lbu	a4,69(s0)
2010512a:	00168793          	addi	a5,a3,1
2010512e:	97a2                	add	a5,a5,s0
20105130:	0689                	addi	a3,a3,2
20105132:	04e781a3          	sb	a4,67(a5)
20105136:	bf9d                	j	201050ac <_printf_common+0x6c>
20105138:	4685                	li	a3,1
2010513a:	8622                	mv	a2,s0
2010513c:	85d2                	mv	a1,s4
2010513e:	854e                	mv	a0,s3
20105140:	9a82                	jalr	s5
20105142:	fb650ee3          	beq	a0,s6,201050fe <_printf_common+0xbe>
20105146:	0905                	addi	s2,s2,1
20105148:	b745                	j	201050e8 <_printf_common+0xa8>

2010514a <_printf_i>:
2010514a:	7179                	addi	sp,sp,-48
2010514c:	d422                	sw	s0,40(sp)
2010514e:	d04a                	sw	s2,32(sp)
20105150:	ce4e                	sw	s3,28(sp)
20105152:	cc52                	sw	s4,24(sp)
20105154:	d606                	sw	ra,44(sp)
20105156:	d226                	sw	s1,36(sp)
20105158:	ca56                	sw	s5,20(sp)
2010515a:	c85a                	sw	s6,16(sp)
2010515c:	0185c803          	lbu	a6,24(a1)
20105160:	07800793          	li	a5,120
20105164:	892a                	mv	s2,a0
20105166:	842e                	mv	s0,a1
20105168:	89b2                	mv	s3,a2
2010516a:	8a36                	mv	s4,a3
2010516c:	0307e263          	bltu	a5,a6,20105190 <_printf_i+0x46>
20105170:	06200793          	li	a5,98
20105174:	04358693          	addi	a3,a1,67
20105178:	0307e163          	bltu	a5,a6,2010519a <_printf_i+0x50>
2010517c:	1c080c63          	beqz	a6,20105354 <_printf_i+0x20a>
20105180:	05800793          	li	a5,88
20105184:	00001617          	auipc	a2,0x1
20105188:	08c60613          	addi	a2,a2,140 # 20106210 <__sf_fake_stdin+0x34>
2010518c:	14f80863          	beq	a6,a5,201052dc <_printf_i+0x192>
20105190:	04240493          	addi	s1,s0,66
20105194:	05040123          	sb	a6,66(s0)
20105198:	a815                	j	201051cc <_printf_i+0x82>
2010519a:	f9d80793          	addi	a5,a6,-99
2010519e:	0ff7f793          	zext.b	a5,a5
201051a2:	4655                	li	a2,21
201051a4:	fef666e3          	bltu	a2,a5,20105190 <_printf_i+0x46>
201051a8:	00001617          	auipc	a2,0x1
201051ac:	09060613          	addi	a2,a2,144 # 20106238 <__sf_fake_stdin+0x5c>
201051b0:	20c7c7b3          	sh2add	a5,a5,a2
201051b4:	439c                	lw	a5,0(a5)
201051b6:	97b2                	add	a5,a5,a2
201051b8:	8782                	jr	a5
201051ba:	431c                	lw	a5,0(a4)
201051bc:	04258493          	addi	s1,a1,66
201051c0:	00478693          	addi	a3,a5,4
201051c4:	439c                	lw	a5,0(a5)
201051c6:	c314                	sw	a3,0(a4)
201051c8:	04f58123          	sb	a5,66(a1)
201051cc:	4785                	li	a5,1
201051ce:	a26d                	j	20105378 <_printf_i+0x22e>
201051d0:	4190                	lw	a2,0(a1)
201051d2:	431c                	lw	a5,0(a4)
201051d4:	08067513          	andi	a0,a2,128
201051d8:	00478593          	addi	a1,a5,4
201051dc:	c129                	beqz	a0,2010521e <_printf_i+0xd4>
201051de:	439c                	lw	a5,0(a5)
201051e0:	c30c                	sw	a1,0(a4)
201051e2:	4058                	lw	a4,4(s0)
201051e4:	1207df63          	bgez	a5,20105322 <_printf_i+0x1d8>
201051e8:	02d00593          	li	a1,45
201051ec:	04b401a3          	sb	a1,67(s0)
201051f0:	c418                	sw	a4,8(s0)
201051f2:	02075e63          	bgez	a4,2010522e <_printf_i+0xe4>
201051f6:	40f007b3          	neg	a5,a5
201051fa:	00001617          	auipc	a2,0x1
201051fe:	01660613          	addi	a2,a2,22 # 20106210 <__sf_fake_stdin+0x34>
20105202:	4829                	li	a6,10
20105204:	84b6                	mv	s1,a3
20105206:	0307f733          	remu	a4,a5,a6
2010520a:	14fd                	addi	s1,s1,-1
2010520c:	9732                	add	a4,a4,a2
2010520e:	2318                	lbu	a4,0(a4)
20105210:	a098                	sb	a4,0(s1)
20105212:	873e                	mv	a4,a5
20105214:	0307d7b3          	divu	a5,a5,a6
20105218:	ff0777e3          	bgeu	a4,a6,20105206 <_printf_i+0xbc>
2010521c:	a085                	j	2010527c <_printf_i+0x132>
2010521e:	439c                	lw	a5,0(a5)
20105220:	04067513          	andi	a0,a2,64
20105224:	c30c                	sw	a1,0(a4)
20105226:	dd55                	beqz	a0,201051e2 <_printf_i+0x98>
20105228:	60579793          	sext.h	a5,a5
2010522c:	bf5d                	j	201051e2 <_printf_i+0x98>
2010522e:	9a6d                	andi	a2,a2,-5
20105230:	c010                	sw	a2,0(s0)
20105232:	b7d1                	j	201051f6 <_printf_i+0xac>
20105234:	4190                	lw	a2,0(a1)
20105236:	431c                	lw	a5,0(a4)
20105238:	08067513          	andi	a0,a2,128
2010523c:	00478593          	addi	a1,a5,4
20105240:	c501                	beqz	a0,20105248 <_printf_i+0xfe>
20105242:	c30c                	sw	a1,0(a4)
20105244:	439c                	lw	a5,0(a5)
20105246:	a031                	j	20105252 <_printf_i+0x108>
20105248:	04067613          	andi	a2,a2,64
2010524c:	c30c                	sw	a1,0(a4)
2010524e:	da7d                	beqz	a2,20105244 <_printf_i+0xfa>
20105250:	239e                	lhu	a5,0(a5)
20105252:	06f00713          	li	a4,111
20105256:	00001617          	auipc	a2,0x1
2010525a:	fba60613          	addi	a2,a2,-70 # 20106210 <__sf_fake_stdin+0x34>
2010525e:	0ce81063          	bne	a6,a4,2010531e <_printf_i+0x1d4>
20105262:	4821                	li	a6,8
20105264:	040401a3          	sb	zero,67(s0)
20105268:	4058                	lw	a4,4(s0)
2010526a:	c418                	sw	a4,8(s0)
2010526c:	f8074ce3          	bltz	a4,20105204 <_printf_i+0xba>
20105270:	400c                	lw	a1,0(s0)
20105272:	99ed                	andi	a1,a1,-5
20105274:	c00c                	sw	a1,0(s0)
20105276:	f7d9                	bnez	a5,20105204 <_printf_i+0xba>
20105278:	84b6                	mv	s1,a3
2010527a:	f749                	bnez	a4,20105204 <_printf_i+0xba>
2010527c:	47a1                	li	a5,8
2010527e:	00f81e63          	bne	a6,a5,2010529a <_printf_i+0x150>
20105282:	401c                	lw	a5,0(s0)
20105284:	8b85                	andi	a5,a5,1
20105286:	cb91                	beqz	a5,2010529a <_printf_i+0x150>
20105288:	4058                	lw	a4,4(s0)
2010528a:	481c                	lw	a5,16(s0)
2010528c:	00e7c763          	blt	a5,a4,2010529a <_printf_i+0x150>
20105290:	03000793          	li	a5,48
20105294:	fef48fa3          	sb	a5,-1(s1)
20105298:	14fd                	addi	s1,s1,-1
2010529a:	8e85                	sub	a3,a3,s1
2010529c:	c814                	sw	a3,16(s0)
2010529e:	8752                	mv	a4,s4
201052a0:	86ce                	mv	a3,s3
201052a2:	0070                	addi	a2,sp,12
201052a4:	85a2                	mv	a1,s0
201052a6:	854a                	mv	a0,s2
201052a8:	d99ff0ef          	jal	ra,20105040 <_printf_common>
201052ac:	5afd                	li	s5,-1
201052ae:	0d551963          	bne	a0,s5,20105380 <_printf_i+0x236>
201052b2:	557d                	li	a0,-1
201052b4:	50b2                	lw	ra,44(sp)
201052b6:	5422                	lw	s0,40(sp)
201052b8:	5492                	lw	s1,36(sp)
201052ba:	5902                	lw	s2,32(sp)
201052bc:	49f2                	lw	s3,28(sp)
201052be:	4a62                	lw	s4,24(sp)
201052c0:	4ad2                	lw	s5,20(sp)
201052c2:	4b42                	lw	s6,16(sp)
201052c4:	6145                	addi	sp,sp,48
201052c6:	8082                	ret
201052c8:	419c                	lw	a5,0(a1)
201052ca:	0207e793          	ori	a5,a5,32
201052ce:	c19c                	sw	a5,0(a1)
201052d0:	07800813          	li	a6,120
201052d4:	00001617          	auipc	a2,0x1
201052d8:	f5060613          	addi	a2,a2,-176 # 20106224 <__sf_fake_stdin+0x48>
201052dc:	050402a3          	sb	a6,69(s0)
201052e0:	400c                	lw	a1,0(s0)
201052e2:	431c                	lw	a5,0(a4)
201052e4:	0805f813          	andi	a6,a1,128
201052e8:	00478513          	addi	a0,a5,4
201052ec:	00080563          	beqz	a6,201052f6 <_printf_i+0x1ac>
201052f0:	c308                	sw	a0,0(a4)
201052f2:	439c                	lw	a5,0(a5)
201052f4:	a039                	j	20105302 <_printf_i+0x1b8>
201052f6:	0405f813          	andi	a6,a1,64
201052fa:	c308                	sw	a0,0(a4)
201052fc:	fe080be3          	beqz	a6,201052f2 <_printf_i+0x1a8>
20105300:	239e                	lhu	a5,0(a5)
20105302:	0015f713          	andi	a4,a1,1
20105306:	c701                	beqz	a4,2010530e <_printf_i+0x1c4>
20105308:	0205e593          	ori	a1,a1,32
2010530c:	c00c                	sw	a1,0(s0)
2010530e:	c399                	beqz	a5,20105314 <_printf_i+0x1ca>
20105310:	4841                	li	a6,16
20105312:	bf89                	j	20105264 <_printf_i+0x11a>
20105314:	4018                	lw	a4,0(s0)
20105316:	fdf77713          	andi	a4,a4,-33
2010531a:	c018                	sw	a4,0(s0)
2010531c:	bfd5                	j	20105310 <_printf_i+0x1c6>
2010531e:	4829                	li	a6,10
20105320:	b791                	j	20105264 <_printf_i+0x11a>
20105322:	00001617          	auipc	a2,0x1
20105326:	eee60613          	addi	a2,a2,-274 # 20106210 <__sf_fake_stdin+0x34>
2010532a:	4829                	li	a6,10
2010532c:	bf35                	j	20105268 <_printf_i+0x11e>
2010532e:	4190                	lw	a2,0(a1)
20105330:	431c                	lw	a5,0(a4)
20105332:	49cc                	lw	a1,20(a1)
20105334:	08067813          	andi	a6,a2,128
20105338:	00478513          	addi	a0,a5,4
2010533c:	00080663          	beqz	a6,20105348 <_printf_i+0x1fe>
20105340:	c308                	sw	a0,0(a4)
20105342:	439c                	lw	a5,0(a5)
20105344:	c38c                	sw	a1,0(a5)
20105346:	a039                	j	20105354 <_printf_i+0x20a>
20105348:	c308                	sw	a0,0(a4)
2010534a:	04067613          	andi	a2,a2,64
2010534e:	439c                	lw	a5,0(a5)
20105350:	da75                	beqz	a2,20105344 <_printf_i+0x1fa>
20105352:	a38e                	sh	a1,0(a5)
20105354:	00042823          	sw	zero,16(s0)
20105358:	84b6                	mv	s1,a3
2010535a:	b791                	j	2010529e <_printf_i+0x154>
2010535c:	431c                	lw	a5,0(a4)
2010535e:	41d0                	lw	a2,4(a1)
20105360:	4581                	li	a1,0
20105362:	00478693          	addi	a3,a5,4
20105366:	c314                	sw	a3,0(a4)
20105368:	4384                	lw	s1,0(a5)
2010536a:	8526                	mv	a0,s1
2010536c:	2b09                	jal	2010587e <memchr>
2010536e:	c501                	beqz	a0,20105376 <_printf_i+0x22c>
20105370:	409507b3          	sub	a5,a0,s1
20105374:	c05c                	sw	a5,4(s0)
20105376:	405c                	lw	a5,4(s0)
20105378:	c81c                	sw	a5,16(s0)
2010537a:	040401a3          	sb	zero,67(s0)
2010537e:	b705                	j	2010529e <_printf_i+0x154>
20105380:	4814                	lw	a3,16(s0)
20105382:	8626                	mv	a2,s1
20105384:	85ce                	mv	a1,s3
20105386:	854a                	mv	a0,s2
20105388:	9a02                	jalr	s4
2010538a:	f35504e3          	beq	a0,s5,201052b2 <_printf_i+0x168>
2010538e:	401c                	lw	a5,0(s0)
20105390:	8b89                	andi	a5,a5,2
20105392:	e785                	bnez	a5,201053ba <_printf_i+0x270>
20105394:	4448                	lw	a0,12(s0)
20105396:	47b2                	lw	a5,12(sp)
20105398:	0af56533          	max	a0,a0,a5
2010539c:	bf21                	j	201052b4 <_printf_i+0x16a>
2010539e:	4685                	li	a3,1
201053a0:	8656                	mv	a2,s5
201053a2:	85ce                	mv	a1,s3
201053a4:	854a                	mv	a0,s2
201053a6:	9a02                	jalr	s4
201053a8:	f16505e3          	beq	a0,s6,201052b2 <_printf_i+0x168>
201053ac:	0485                	addi	s1,s1,1
201053ae:	445c                	lw	a5,12(s0)
201053b0:	4732                	lw	a4,12(sp)
201053b2:	8f99                	sub	a5,a5,a4
201053b4:	fef4c5e3          	blt	s1,a5,2010539e <_printf_i+0x254>
201053b8:	bff1                	j	20105394 <_printf_i+0x24a>
201053ba:	4481                	li	s1,0
201053bc:	01940a93          	addi	s5,s0,25
201053c0:	5b7d                	li	s6,-1
201053c2:	b7f5                	j	201053ae <_printf_i+0x264>

201053c4 <__sfputc_r>:
201053c4:	461c                	lw	a5,8(a2)
201053c6:	17fd                	addi	a5,a5,-1
201053c8:	c61c                	sw	a5,8(a2)
201053ca:	0007da63          	bgez	a5,201053de <__sfputc_r+0x1a>
201053ce:	4e18                	lw	a4,24(a2)
201053d0:	00e7c563          	blt	a5,a4,201053da <__sfputc_r+0x16>
201053d4:	47a9                	li	a5,10
201053d6:	00f59463          	bne	a1,a5,201053de <__sfputc_r+0x1a>
201053da:	874ff06f          	j	2010444e <__swbuf_r>
201053de:	421c                	lw	a5,0(a2)
201053e0:	852e                	mv	a0,a1
201053e2:	00178713          	addi	a4,a5,1
201053e6:	c218                	sw	a4,0(a2)
201053e8:	a38c                	sb	a1,0(a5)
201053ea:	8082                	ret

201053ec <__sfputs_r>:
201053ec:	1101                	addi	sp,sp,-32
201053ee:	cc22                	sw	s0,24(sp)
201053f0:	ca26                	sw	s1,20(sp)
201053f2:	c84a                	sw	s2,16(sp)
201053f4:	c64e                	sw	s3,12(sp)
201053f6:	c452                	sw	s4,8(sp)
201053f8:	ce06                	sw	ra,28(sp)
201053fa:	892a                	mv	s2,a0
201053fc:	89ae                	mv	s3,a1
201053fe:	8432                	mv	s0,a2
20105400:	00d604b3          	add	s1,a2,a3
20105404:	5a7d                	li	s4,-1
20105406:	00941463          	bne	s0,s1,2010540e <__sfputs_r+0x22>
2010540a:	4501                	li	a0,0
2010540c:	a809                	j	2010541e <__sfputs_r+0x32>
2010540e:	200c                	lbu	a1,0(s0)
20105410:	864e                	mv	a2,s3
20105412:	854a                	mv	a0,s2
20105414:	fb1ff0ef          	jal	ra,201053c4 <__sfputc_r>
20105418:	0405                	addi	s0,s0,1
2010541a:	ff4516e3          	bne	a0,s4,20105406 <__sfputs_r+0x1a>
2010541e:	40f2                	lw	ra,28(sp)
20105420:	4462                	lw	s0,24(sp)
20105422:	44d2                	lw	s1,20(sp)
20105424:	4942                	lw	s2,16(sp)
20105426:	49b2                	lw	s3,12(sp)
20105428:	4a22                	lw	s4,8(sp)
2010542a:	6105                	addi	sp,sp,32
2010542c:	8082                	ret

2010542e <_vfiprintf_r>:
2010542e:	7135                	addi	sp,sp,-160
20105430:	cd22                	sw	s0,152(sp)
20105432:	cb26                	sw	s1,148(sp)
20105434:	c94a                	sw	s2,144(sp)
20105436:	c74e                	sw	s3,140(sp)
20105438:	cf06                	sw	ra,156(sp)
2010543a:	c552                	sw	s4,136(sp)
2010543c:	c356                	sw	s5,132(sp)
2010543e:	c15a                	sw	s6,128(sp)
20105440:	dede                	sw	s7,124(sp)
20105442:	dce2                	sw	s8,120(sp)
20105444:	89aa                	mv	s3,a0
20105446:	842e                	mv	s0,a1
20105448:	8932                	mv	s2,a2
2010544a:	84b6                	mv	s1,a3
2010544c:	c509                	beqz	a0,20105456 <_vfiprintf_r+0x28>
2010544e:	4d1c                	lw	a5,24(a0)
20105450:	e399                	bnez	a5,20105456 <_vfiprintf_r+0x28>
20105452:	c2eff0ef          	jal	ra,20104880 <__sinit>
20105456:	00001797          	auipc	a5,0x1
2010545a:	d8678793          	addi	a5,a5,-634 # 201061dc <__sf_fake_stdin>
2010545e:	04f41863          	bne	s0,a5,201054ae <_vfiprintf_r+0x80>
20105462:	0049a403          	lw	s0,4(s3)
20105466:	507c                	lw	a5,100(s0)
20105468:	8b85                	andi	a5,a5,1
2010546a:	eb81                	bnez	a5,2010547a <_vfiprintf_r+0x4c>
2010546c:	245e                	lhu	a5,12(s0)
2010546e:	2007f793          	andi	a5,a5,512
20105472:	e781                	bnez	a5,2010547a <_vfiprintf_r+0x4c>
20105474:	4c28                	lw	a0,88(s0)
20105476:	d96ff0ef          	jal	ra,20104a0c <__retarget_lock_acquire_recursive>
2010547a:	245e                	lhu	a5,12(s0)
2010547c:	8ba1                	andi	a5,a5,8
2010547e:	c399                	beqz	a5,20105484 <_vfiprintf_r+0x56>
20105480:	481c                	lw	a5,16(s0)
20105482:	e3a5                	bnez	a5,201054e2 <_vfiprintf_r+0xb4>
20105484:	85a2                	mv	a1,s0
20105486:	854e                	mv	a0,s3
20105488:	882ff0ef          	jal	ra,2010450a <__swsetup_r>
2010548c:	c939                	beqz	a0,201054e2 <_vfiprintf_r+0xb4>
2010548e:	507c                	lw	a5,100(s0)
20105490:	8b85                	andi	a5,a5,1
20105492:	c3a1                	beqz	a5,201054d2 <_vfiprintf_r+0xa4>
20105494:	557d                	li	a0,-1
20105496:	40fa                	lw	ra,156(sp)
20105498:	446a                	lw	s0,152(sp)
2010549a:	44da                	lw	s1,148(sp)
2010549c:	494a                	lw	s2,144(sp)
2010549e:	49ba                	lw	s3,140(sp)
201054a0:	4a2a                	lw	s4,136(sp)
201054a2:	4a9a                	lw	s5,132(sp)
201054a4:	4b0a                	lw	s6,128(sp)
201054a6:	5bf6                	lw	s7,124(sp)
201054a8:	5c66                	lw	s8,120(sp)
201054aa:	610d                	addi	sp,sp,160
201054ac:	8082                	ret
201054ae:	00001797          	auipc	a5,0x1
201054b2:	d0e78793          	addi	a5,a5,-754 # 201061bc <__sf_fake_stdout>
201054b6:	00f41563          	bne	s0,a5,201054c0 <_vfiprintf_r+0x92>
201054ba:	0089a403          	lw	s0,8(s3)
201054be:	b765                	j	20105466 <_vfiprintf_r+0x38>
201054c0:	00001797          	auipc	a5,0x1
201054c4:	cdc78793          	addi	a5,a5,-804 # 2010619c <__sf_fake_stderr>
201054c8:	f8f41fe3          	bne	s0,a5,20105466 <_vfiprintf_r+0x38>
201054cc:	00c9a403          	lw	s0,12(s3)
201054d0:	bf59                	j	20105466 <_vfiprintf_r+0x38>
201054d2:	245e                	lhu	a5,12(s0)
201054d4:	2007f793          	andi	a5,a5,512
201054d8:	ffd5                	bnez	a5,20105494 <_vfiprintf_r+0x66>
201054da:	4c28                	lw	a0,88(s0)
201054dc:	d32ff0ef          	jal	ra,20104a0e <__retarget_lock_release_recursive>
201054e0:	bf55                	j	20105494 <_vfiprintf_r+0x66>
201054e2:	02000793          	li	a5,32
201054e6:	02f104a3          	sb	a5,41(sp)
201054ea:	03000793          	li	a5,48
201054ee:	d202                	sw	zero,36(sp)
201054f0:	02f10523          	sb	a5,42(sp)
201054f4:	c626                	sw	s1,12(sp)
201054f6:	02500b93          	li	s7,37
201054fa:	00001a97          	auipc	s5,0x1
201054fe:	d02a8a93          	addi	s5,s5,-766 # 201061fc <__sf_fake_stdin+0x20>
20105502:	4b29                	li	s6,10
20105504:	84ca                	mv	s1,s2
20105506:	209c                	lbu	a5,0(s1)
20105508:	c399                	beqz	a5,2010550e <_vfiprintf_r+0xe0>
2010550a:	09779a63          	bne	a5,s7,2010559e <_vfiprintf_r+0x170>
2010550e:	41248c33          	sub	s8,s1,s2
20105512:	01248e63          	beq	s1,s2,2010552e <_vfiprintf_r+0x100>
20105516:	86e2                	mv	a3,s8
20105518:	864a                	mv	a2,s2
2010551a:	85a2                	mv	a1,s0
2010551c:	854e                	mv	a0,s3
2010551e:	ecfff0ef          	jal	ra,201053ec <__sfputs_r>
20105522:	57fd                	li	a5,-1
20105524:	18f50663          	beq	a0,a5,201056b0 <_vfiprintf_r+0x282>
20105528:	5792                	lw	a5,36(sp)
2010552a:	97e2                	add	a5,a5,s8
2010552c:	d23e                	sw	a5,36(sp)
2010552e:	209c                	lbu	a5,0(s1)
20105530:	18078063          	beqz	a5,201056b0 <_vfiprintf_r+0x282>
20105534:	57fd                	li	a5,-1
20105536:	00148913          	addi	s2,s1,1
2010553a:	c802                	sw	zero,16(sp)
2010553c:	ce02                	sw	zero,28(sp)
2010553e:	ca3e                	sw	a5,20(sp)
20105540:	cc02                	sw	zero,24(sp)
20105542:	040109a3          	sb	zero,83(sp)
20105546:	d482                	sw	zero,104(sp)
20105548:	00094583          	lbu	a1,0(s2)
2010554c:	4615                	li	a2,5
2010554e:	8556                	mv	a0,s5
20105550:	263d                	jal	2010587e <memchr>
20105552:	47c2                	lw	a5,16(sp)
20105554:	00190493          	addi	s1,s2,1
20105558:	e529                	bnez	a0,201055a2 <_vfiprintf_r+0x174>
2010555a:	0107f713          	andi	a4,a5,16
2010555e:	c709                	beqz	a4,20105568 <_vfiprintf_r+0x13a>
20105560:	02000713          	li	a4,32
20105564:	04e109a3          	sb	a4,83(sp)
20105568:	0087f713          	andi	a4,a5,8
2010556c:	c709                	beqz	a4,20105576 <_vfiprintf_r+0x148>
2010556e:	02b00713          	li	a4,43
20105572:	04e109a3          	sb	a4,83(sp)
20105576:	00094683          	lbu	a3,0(s2)
2010557a:	02a00713          	li	a4,42
2010557e:	02e68963          	beq	a3,a4,201055b0 <_vfiprintf_r+0x182>
20105582:	47f2                	lw	a5,28(sp)
20105584:	84ca                	mv	s1,s2
20105586:	4681                	li	a3,0
20105588:	4625                	li	a2,9
2010558a:	2098                	lbu	a4,0(s1)
2010558c:	00148593          	addi	a1,s1,1
20105590:	fd070713          	addi	a4,a4,-48
20105594:	06e67263          	bgeu	a2,a4,201055f8 <_vfiprintf_r+0x1ca>
20105598:	c685                	beqz	a3,201055c0 <_vfiprintf_r+0x192>
2010559a:	ce3e                	sw	a5,28(sp)
2010559c:	a015                	j	201055c0 <_vfiprintf_r+0x192>
2010559e:	0485                	addi	s1,s1,1
201055a0:	b79d                	j	20105506 <_vfiprintf_r+0xd8>
201055a2:	41550533          	sub	a0,a0,s5
201055a6:	28a797b3          	bset	a5,a5,a0
201055aa:	8926                	mv	s2,s1
201055ac:	c83e                	sw	a5,16(sp)
201055ae:	bf69                	j	20105548 <_vfiprintf_r+0x11a>
201055b0:	4732                	lw	a4,12(sp)
201055b2:	00470693          	addi	a3,a4,4
201055b6:	4318                	lw	a4,0(a4)
201055b8:	c636                	sw	a3,12(sp)
201055ba:	02074863          	bltz	a4,201055ea <_vfiprintf_r+0x1bc>
201055be:	ce3a                	sw	a4,28(sp)
201055c0:	2098                	lbu	a4,0(s1)
201055c2:	02e00793          	li	a5,46
201055c6:	04f71c63          	bne	a4,a5,2010561e <_vfiprintf_r+0x1f0>
201055ca:	3098                	lbu	a4,1(s1)
201055cc:	02a00793          	li	a5,42
201055d0:	02f71a63          	bne	a4,a5,20105604 <_vfiprintf_r+0x1d6>
201055d4:	47b2                	lw	a5,12(sp)
201055d6:	0489                	addi	s1,s1,2
201055d8:	00478713          	addi	a4,a5,4
201055dc:	439c                	lw	a5,0(a5)
201055de:	c63a                	sw	a4,12(sp)
201055e0:	577d                	li	a4,-1
201055e2:	0ae7e7b3          	max	a5,a5,a4
201055e6:	ca3e                	sw	a5,20(sp)
201055e8:	a81d                	j	2010561e <_vfiprintf_r+0x1f0>
201055ea:	40e00733          	neg	a4,a4
201055ee:	0027e793          	ori	a5,a5,2
201055f2:	ce3a                	sw	a4,28(sp)
201055f4:	c83e                	sw	a5,16(sp)
201055f6:	b7e9                	j	201055c0 <_vfiprintf_r+0x192>
201055f8:	036787b3          	mul	a5,a5,s6
201055fc:	84ae                	mv	s1,a1
201055fe:	4685                	li	a3,1
20105600:	97ba                	add	a5,a5,a4
20105602:	b761                	j	2010558a <_vfiprintf_r+0x15c>
20105604:	0485                	addi	s1,s1,1
20105606:	ca02                	sw	zero,20(sp)
20105608:	4681                	li	a3,0
2010560a:	4781                	li	a5,0
2010560c:	4625                	li	a2,9
2010560e:	2098                	lbu	a4,0(s1)
20105610:	00148593          	addi	a1,s1,1
20105614:	fd070713          	addi	a4,a4,-48
20105618:	06e67263          	bgeu	a2,a4,2010567c <_vfiprintf_r+0x24e>
2010561c:	f6e9                	bnez	a3,201055e6 <_vfiprintf_r+0x1b8>
2010561e:	208c                	lbu	a1,0(s1)
20105620:	460d                	li	a2,3
20105622:	00001517          	auipc	a0,0x1
20105626:	be250513          	addi	a0,a0,-1054 # 20106204 <__sf_fake_stdin+0x28>
2010562a:	2c91                	jal	2010587e <memchr>
2010562c:	cd11                	beqz	a0,20105648 <_vfiprintf_r+0x21a>
2010562e:	00001797          	auipc	a5,0x1
20105632:	bd678793          	addi	a5,a5,-1066 # 20106204 <__sf_fake_stdin+0x28>
20105636:	8d1d                	sub	a0,a0,a5
20105638:	47c2                	lw	a5,16(sp)
2010563a:	04000713          	li	a4,64
2010563e:	00a71733          	sll	a4,a4,a0
20105642:	8fd9                	or	a5,a5,a4
20105644:	0485                	addi	s1,s1,1
20105646:	c83e                	sw	a5,16(sp)
20105648:	208c                	lbu	a1,0(s1)
2010564a:	4619                	li	a2,6
2010564c:	00001517          	auipc	a0,0x1
20105650:	bbc50513          	addi	a0,a0,-1092 # 20106208 <__sf_fake_stdin+0x2c>
20105654:	00148913          	addi	s2,s1,1
20105658:	02b10423          	sb	a1,40(sp)
2010565c:	240d                	jal	2010587e <memchr>
2010565e:	c935                	beqz	a0,201056d2 <_vfiprintf_r+0x2a4>
20105660:	00000793          	li	a5,0
20105664:	e795                	bnez	a5,20105690 <_vfiprintf_r+0x262>
20105666:	4742                	lw	a4,16(sp)
20105668:	47b2                	lw	a5,12(sp)
2010566a:	10077713          	andi	a4,a4,256
2010566e:	cf09                	beqz	a4,20105688 <_vfiprintf_r+0x25a>
20105670:	0791                	addi	a5,a5,4
20105672:	c63e                	sw	a5,12(sp)
20105674:	5792                	lw	a5,36(sp)
20105676:	97d2                	add	a5,a5,s4
20105678:	d23e                	sw	a5,36(sp)
2010567a:	b569                	j	20105504 <_vfiprintf_r+0xd6>
2010567c:	036787b3          	mul	a5,a5,s6
20105680:	84ae                	mv	s1,a1
20105682:	4685                	li	a3,1
20105684:	97ba                	add	a5,a5,a4
20105686:	b761                	j	2010560e <_vfiprintf_r+0x1e0>
20105688:	079d                	addi	a5,a5,7
2010568a:	9be1                	andi	a5,a5,-8
2010568c:	07a1                	addi	a5,a5,8
2010568e:	b7d5                	j	20105672 <_vfiprintf_r+0x244>
20105690:	0078                	addi	a4,sp,12
20105692:	00000697          	auipc	a3,0x0
20105696:	d5a68693          	addi	a3,a3,-678 # 201053ec <__sfputs_r>
2010569a:	8622                	mv	a2,s0
2010569c:	080c                	addi	a1,sp,16
2010569e:	854e                	mv	a0,s3
201056a0:	00000097          	auipc	ra,0x0
201056a4:	000000e7          	jalr	zero # 0 <_sinit>
201056a8:	57fd                	li	a5,-1
201056aa:	8a2a                	mv	s4,a0
201056ac:	fcf514e3          	bne	a0,a5,20105674 <_vfiprintf_r+0x246>
201056b0:	507c                	lw	a5,100(s0)
201056b2:	8b85                	andi	a5,a5,1
201056b4:	eb81                	bnez	a5,201056c4 <_vfiprintf_r+0x296>
201056b6:	245e                	lhu	a5,12(s0)
201056b8:	2007f793          	andi	a5,a5,512
201056bc:	e781                	bnez	a5,201056c4 <_vfiprintf_r+0x296>
201056be:	4c28                	lw	a0,88(s0)
201056c0:	b4eff0ef          	jal	ra,20104a0e <__retarget_lock_release_recursive>
201056c4:	245e                	lhu	a5,12(s0)
201056c6:	0407f793          	andi	a5,a5,64
201056ca:	dc0795e3          	bnez	a5,20105494 <_vfiprintf_r+0x66>
201056ce:	5512                	lw	a0,36(sp)
201056d0:	b3d9                	j	20105496 <_vfiprintf_r+0x68>
201056d2:	0078                	addi	a4,sp,12
201056d4:	00000697          	auipc	a3,0x0
201056d8:	d1868693          	addi	a3,a3,-744 # 201053ec <__sfputs_r>
201056dc:	8622                	mv	a2,s0
201056de:	080c                	addi	a1,sp,16
201056e0:	854e                	mv	a0,s3
201056e2:	a69ff0ef          	jal	ra,2010514a <_printf_i>
201056e6:	b7c9                	j	201056a8 <_vfiprintf_r+0x27a>

201056e8 <_sbrk_r>:
201056e8:	1141                	addi	sp,sp,-16
201056ea:	c422                	sw	s0,8(sp)
201056ec:	842a                	mv	s0,a0
201056ee:	852e                	mv	a0,a1
201056f0:	8801a823          	sw	zero,-1904(gp) # 20110270 <errno>
201056f4:	c606                	sw	ra,12(sp)
201056f6:	c93fd0ef          	jal	ra,20103388 <_sbrk>
201056fa:	57fd                	li	a5,-1
201056fc:	00f51663          	bne	a0,a5,20105708 <_sbrk_r+0x20>
20105700:	8901a783          	lw	a5,-1904(gp) # 20110270 <errno>
20105704:	c391                	beqz	a5,20105708 <_sbrk_r+0x20>
20105706:	c01c                	sw	a5,0(s0)
20105708:	40b2                	lw	ra,12(sp)
2010570a:	4422                	lw	s0,8(sp)
2010570c:	0141                	addi	sp,sp,16
2010570e:	8082                	ret

20105710 <__sread>:
20105710:	1141                	addi	sp,sp,-16
20105712:	c422                	sw	s0,8(sp)
20105714:	842e                	mv	s0,a1
20105716:	00e59583          	lh	a1,14(a1)
2010571a:	c606                	sw	ra,12(sp)
2010571c:	2401                	jal	2010591c <_read_r>
2010571e:	00054963          	bltz	a0,20105730 <__sread+0x20>
20105722:	487c                	lw	a5,84(s0)
20105724:	97aa                	add	a5,a5,a0
20105726:	c87c                	sw	a5,84(s0)
20105728:	40b2                	lw	ra,12(sp)
2010572a:	4422                	lw	s0,8(sp)
2010572c:	0141                	addi	sp,sp,16
2010572e:	8082                	ret
20105730:	245e                	lhu	a5,12(s0)
20105732:	48c79793          	bclri	a5,a5,0xc
20105736:	a45e                	sh	a5,12(s0)
20105738:	bfc5                	j	20105728 <__sread+0x18>

2010573a <__swrite>:
2010573a:	25de                	lhu	a5,12(a1)
2010573c:	1101                	addi	sp,sp,-32
2010573e:	cc22                	sw	s0,24(sp)
20105740:	ca26                	sw	s1,20(sp)
20105742:	c84a                	sw	s2,16(sp)
20105744:	c64e                	sw	s3,12(sp)
20105746:	ce06                	sw	ra,28(sp)
20105748:	1007f793          	andi	a5,a5,256
2010574c:	84aa                	mv	s1,a0
2010574e:	842e                	mv	s0,a1
20105750:	8932                	mv	s2,a2
20105752:	89b6                	mv	s3,a3
20105754:	c791                	beqz	a5,20105760 <__swrite+0x26>
20105756:	00e59583          	lh	a1,14(a1)
2010575a:	4689                	li	a3,2
2010575c:	4601                	li	a2,0
2010575e:	28dd                	jal	20105854 <_lseek_r>
20105760:	245e                	lhu	a5,12(s0)
20105762:	00e41583          	lh	a1,14(s0)
20105766:	40f2                	lw	ra,28(sp)
20105768:	48c79793          	bclri	a5,a5,0xc
2010576c:	a45e                	sh	a5,12(s0)
2010576e:	4462                	lw	s0,24(sp)
20105770:	86ce                	mv	a3,s3
20105772:	864a                	mv	a2,s2
20105774:	49b2                	lw	s3,12(sp)
20105776:	4942                	lw	s2,16(sp)
20105778:	8526                	mv	a0,s1
2010577a:	44d2                	lw	s1,20(sp)
2010577c:	6105                	addi	sp,sp,32
2010577e:	a81d                	j	201057b4 <_write_r>

20105780 <__sseek>:
20105780:	1141                	addi	sp,sp,-16
20105782:	c422                	sw	s0,8(sp)
20105784:	842e                	mv	s0,a1
20105786:	00e59583          	lh	a1,14(a1)
2010578a:	c606                	sw	ra,12(sp)
2010578c:	20e1                	jal	20105854 <_lseek_r>
2010578e:	577d                	li	a4,-1
20105790:	245e                	lhu	a5,12(s0)
20105792:	00e51963          	bne	a0,a4,201057a4 <__sseek+0x24>
20105796:	48c79793          	bclri	a5,a5,0xc
2010579a:	a45e                	sh	a5,12(s0)
2010579c:	40b2                	lw	ra,12(sp)
2010579e:	4422                	lw	s0,8(sp)
201057a0:	0141                	addi	sp,sp,16
201057a2:	8082                	ret
201057a4:	28c79793          	bseti	a5,a5,0xc
201057a8:	c868                	sw	a0,84(s0)
201057aa:	a45e                	sh	a5,12(s0)
201057ac:	bfc5                	j	2010579c <__sseek+0x1c>

201057ae <__sclose>:
201057ae:	00e59583          	lh	a1,14(a1)
201057b2:	a03d                	j	201057e0 <_close_r>

201057b4 <_write_r>:
201057b4:	1141                	addi	sp,sp,-16
201057b6:	c422                	sw	s0,8(sp)
201057b8:	842a                	mv	s0,a0
201057ba:	852e                	mv	a0,a1
201057bc:	85b2                	mv	a1,a2
201057be:	8636                	mv	a2,a3
201057c0:	8801a823          	sw	zero,-1904(gp) # 20110270 <errno>
201057c4:	c606                	sw	ra,12(sp)
201057c6:	b7ffd0ef          	jal	ra,20103344 <_write>
201057ca:	57fd                	li	a5,-1
201057cc:	00f51663          	bne	a0,a5,201057d8 <_write_r+0x24>
201057d0:	8901a783          	lw	a5,-1904(gp) # 20110270 <errno>
201057d4:	c391                	beqz	a5,201057d8 <_write_r+0x24>
201057d6:	c01c                	sw	a5,0(s0)
201057d8:	40b2                	lw	ra,12(sp)
201057da:	4422                	lw	s0,8(sp)
201057dc:	0141                	addi	sp,sp,16
201057de:	8082                	ret

201057e0 <_close_r>:
201057e0:	1141                	addi	sp,sp,-16
201057e2:	c422                	sw	s0,8(sp)
201057e4:	842a                	mv	s0,a0
201057e6:	852e                	mv	a0,a1
201057e8:	8801a823          	sw	zero,-1904(gp) # 20110270 <errno>
201057ec:	c606                	sw	ra,12(sp)
201057ee:	22b5                	jal	2010595a <_close>
201057f0:	57fd                	li	a5,-1
201057f2:	00f51663          	bne	a0,a5,201057fe <_close_r+0x1e>
201057f6:	8901a783          	lw	a5,-1904(gp) # 20110270 <errno>
201057fa:	c391                	beqz	a5,201057fe <_close_r+0x1e>
201057fc:	c01c                	sw	a5,0(s0)
201057fe:	40b2                	lw	ra,12(sp)
20105800:	4422                	lw	s0,8(sp)
20105802:	0141                	addi	sp,sp,16
20105804:	8082                	ret

20105806 <_fstat_r>:
20105806:	1141                	addi	sp,sp,-16
20105808:	c422                	sw	s0,8(sp)
2010580a:	842a                	mv	s0,a0
2010580c:	852e                	mv	a0,a1
2010580e:	85b2                	mv	a1,a2
20105810:	8801a823          	sw	zero,-1904(gp) # 20110270 <errno>
20105814:	c606                	sw	ra,12(sp)
20105816:	2a81                	jal	20105966 <_fstat>
20105818:	57fd                	li	a5,-1
2010581a:	00f51663          	bne	a0,a5,20105826 <_fstat_r+0x20>
2010581e:	8901a783          	lw	a5,-1904(gp) # 20110270 <errno>
20105822:	c391                	beqz	a5,20105826 <_fstat_r+0x20>
20105824:	c01c                	sw	a5,0(s0)
20105826:	40b2                	lw	ra,12(sp)
20105828:	4422                	lw	s0,8(sp)
2010582a:	0141                	addi	sp,sp,16
2010582c:	8082                	ret

2010582e <_isatty_r>:
2010582e:	1141                	addi	sp,sp,-16
20105830:	c422                	sw	s0,8(sp)
20105832:	842a                	mv	s0,a0
20105834:	852e                	mv	a0,a1
20105836:	8801a823          	sw	zero,-1904(gp) # 20110270 <errno>
2010583a:	c606                	sw	ra,12(sp)
2010583c:	2a1d                	jal	20105972 <_isatty>
2010583e:	57fd                	li	a5,-1
20105840:	00f51663          	bne	a0,a5,2010584c <_isatty_r+0x1e>
20105844:	8901a783          	lw	a5,-1904(gp) # 20110270 <errno>
20105848:	c391                	beqz	a5,2010584c <_isatty_r+0x1e>
2010584a:	c01c                	sw	a5,0(s0)
2010584c:	40b2                	lw	ra,12(sp)
2010584e:	4422                	lw	s0,8(sp)
20105850:	0141                	addi	sp,sp,16
20105852:	8082                	ret

20105854 <_lseek_r>:
20105854:	1141                	addi	sp,sp,-16
20105856:	c422                	sw	s0,8(sp)
20105858:	842a                	mv	s0,a0
2010585a:	852e                	mv	a0,a1
2010585c:	85b2                	mv	a1,a2
2010585e:	8636                	mv	a2,a3
20105860:	8801a823          	sw	zero,-1904(gp) # 20110270 <errno>
20105864:	c606                	sw	ra,12(sp)
20105866:	2a21                	jal	2010597e <_lseek>
20105868:	57fd                	li	a5,-1
2010586a:	00f51663          	bne	a0,a5,20105876 <_lseek_r+0x22>
2010586e:	8901a783          	lw	a5,-1904(gp) # 20110270 <errno>
20105872:	c391                	beqz	a5,20105876 <_lseek_r+0x22>
20105874:	c01c                	sw	a5,0(s0)
20105876:	40b2                	lw	ra,12(sp)
20105878:	4422                	lw	s0,8(sp)
2010587a:	0141                	addi	sp,sp,16
2010587c:	8082                	ret

2010587e <memchr>:
2010587e:	0ff5f593          	zext.b	a1,a1
20105882:	962a                	add	a2,a2,a0
20105884:	00c51463          	bne	a0,a2,2010588c <memchr+0xe>
20105888:	4501                	li	a0,0
2010588a:	8082                	ret
2010588c:	211c                	lbu	a5,0(a0)
2010588e:	feb78ee3          	beq	a5,a1,2010588a <memchr+0xc>
20105892:	0505                	addi	a0,a0,1
20105894:	bfc5                	j	20105884 <memchr+0x6>

20105896 <__malloc_lock>:
20105896:	87c18513          	addi	a0,gp,-1924 # 2011025c <__lock___malloc_recursive_mutex>
2010589a:	972ff06f          	j	20104a0c <__retarget_lock_acquire_recursive>

2010589e <__malloc_unlock>:
2010589e:	87c18513          	addi	a0,gp,-1924 # 2011025c <__lock___malloc_recursive_mutex>
201058a2:	96cff06f          	j	20104a0e <__retarget_lock_release_recursive>

201058a6 <_realloc_r>:
201058a6:	1101                	addi	sp,sp,-32
201058a8:	ca26                	sw	s1,20(sp)
201058aa:	ce06                	sw	ra,28(sp)
201058ac:	cc22                	sw	s0,24(sp)
201058ae:	c84a                	sw	s2,16(sp)
201058b0:	c64e                	sw	s3,12(sp)
201058b2:	c452                	sw	s4,8(sp)
201058b4:	84b2                	mv	s1,a2
201058b6:	e999                	bnez	a1,201058cc <_realloc_r+0x26>
201058b8:	4462                	lw	s0,24(sp)
201058ba:	40f2                	lw	ra,28(sp)
201058bc:	44d2                	lw	s1,20(sp)
201058be:	4942                	lw	s2,16(sp)
201058c0:	49b2                	lw	s3,12(sp)
201058c2:	4a22                	lw	s4,8(sp)
201058c4:	85b2                	mv	a1,a2
201058c6:	6105                	addi	sp,sp,32
201058c8:	b34ff06f          	j	20104bfc <_malloc_r>
201058cc:	ee09                	bnez	a2,201058e6 <_realloc_r+0x40>
201058ce:	a32ff0ef          	jal	ra,20104b00 <_free_r>
201058d2:	4401                	li	s0,0
201058d4:	40f2                	lw	ra,28(sp)
201058d6:	8522                	mv	a0,s0
201058d8:	4462                	lw	s0,24(sp)
201058da:	44d2                	lw	s1,20(sp)
201058dc:	4942                	lw	s2,16(sp)
201058de:	49b2                	lw	s3,12(sp)
201058e0:	4a22                	lw	s4,8(sp)
201058e2:	6105                	addi	sp,sp,32
201058e4:	8082                	ret
201058e6:	8a2a                	mv	s4,a0
201058e8:	842e                	mv	s0,a1
201058ea:	28b1                	jal	20105946 <_malloc_usable_size_r>
201058ec:	892a                	mv	s2,a0
201058ee:	00956663          	bltu	a0,s1,201058fa <_realloc_r+0x54>
201058f2:	00155793          	srli	a5,a0,0x1
201058f6:	fc97efe3          	bltu	a5,s1,201058d4 <_realloc_r+0x2e>
201058fa:	85a6                	mv	a1,s1
201058fc:	8552                	mv	a0,s4
201058fe:	afeff0ef          	jal	ra,20104bfc <_malloc_r>
20105902:	89aa                	mv	s3,a0
20105904:	d579                	beqz	a0,201058d2 <_realloc_r+0x2c>
20105906:	85a2                	mv	a1,s0
20105908:	0b24d633          	minu	a2,s1,s2
2010590c:	9a9fa0ef          	jal	ra,201002b4 <memcpy>
20105910:	85a2                	mv	a1,s0
20105912:	8552                	mv	a0,s4
20105914:	9ecff0ef          	jal	ra,20104b00 <_free_r>
20105918:	844e                	mv	s0,s3
2010591a:	bf6d                	j	201058d4 <_realloc_r+0x2e>

2010591c <_read_r>:
2010591c:	1141                	addi	sp,sp,-16
2010591e:	c422                	sw	s0,8(sp)
20105920:	842a                	mv	s0,a0
20105922:	852e                	mv	a0,a1
20105924:	85b2                	mv	a1,a2
20105926:	8636                	mv	a2,a3
20105928:	8801a823          	sw	zero,-1904(gp) # 20110270 <errno>
2010592c:	c606                	sw	ra,12(sp)
2010592e:	28b1                	jal	2010598a <_read>
20105930:	57fd                	li	a5,-1
20105932:	00f51663          	bne	a0,a5,2010593e <_read_r+0x22>
20105936:	8901a783          	lw	a5,-1904(gp) # 20110270 <errno>
2010593a:	c391                	beqz	a5,2010593e <_read_r+0x22>
2010593c:	c01c                	sw	a5,0(s0)
2010593e:	40b2                	lw	ra,12(sp)
20105940:	4422                	lw	s0,8(sp)
20105942:	0141                	addi	sp,sp,16
20105944:	8082                	ret

20105946 <_malloc_usable_size_r>:
20105946:	ffc5a783          	lw	a5,-4(a1)
2010594a:	ffc78513          	addi	a0,a5,-4
2010594e:	0007d563          	bgez	a5,20105958 <_malloc_usable_size_r+0x12>
20105952:	95aa                	add	a1,a1,a0
20105954:	419c                	lw	a5,0(a1)
20105956:	953e                	add	a0,a0,a5
20105958:	8082                	ret

2010595a <_close>:
2010595a:	05800793          	li	a5,88
2010595e:	88f1a823          	sw	a5,-1904(gp) # 20110270 <errno>
20105962:	557d                	li	a0,-1
20105964:	8082                	ret

20105966 <_fstat>:
20105966:	05800793          	li	a5,88
2010596a:	88f1a823          	sw	a5,-1904(gp) # 20110270 <errno>
2010596e:	557d                	li	a0,-1
20105970:	8082                	ret

20105972 <_isatty>:
20105972:	05800793          	li	a5,88
20105976:	88f1a823          	sw	a5,-1904(gp) # 20110270 <errno>
2010597a:	4501                	li	a0,0
2010597c:	8082                	ret

2010597e <_lseek>:
2010597e:	05800793          	li	a5,88
20105982:	88f1a823          	sw	a5,-1904(gp) # 20110270 <errno>
20105986:	557d                	li	a0,-1
20105988:	8082                	ret

2010598a <_read>:
2010598a:	05800793          	li	a5,88
2010598e:	88f1a823          	sw	a5,-1904(gp) # 20110270 <errno>
20105992:	557d                	li	a0,-1
20105994:	8082                	ret
20105996:	0000                	unimp
20105998:	74737953          	.4byte	0x74737953
2010599c:	6d65                	lui	s10,0x19
2010599e:	3a6b6c43          	.4byte	0x3a6b6c43
201059a2:	6425                	lui	s0,0x9
201059a4:	0a0d                	addi	s4,s4,3
201059a6:	0000                	unimp
201059a8:	3356                	lhu	a3,36(a4)
201059aa:	2046                	lhu	s1,4(s0)
201059ac:	74737953          	.4byte	0x74737953
201059b0:	6d65                	lui	s10,0x19
201059b2:	65726f43          	.4byte	0x65726f43
201059b6:	3a6b6c43          	.4byte	0x3a6b6c43
201059ba:	6425                	lui	s0,0x9
201059bc:	0a0d                	addi	s4,s4,3
201059be:	0000                	unimp
201059c0:	1908                	addi	a0,sp,176
201059c2:	2010                	lbu	a2,0(s0)
201059c4:	191e                	slli	s2,s2,0x27
201059c6:	2010                	lbu	a2,0(s0)
201059c8:	1968                	addi	a0,sp,188
201059ca:	2010                	lbu	a2,0(s0)
201059cc:	19d4                	addi	a3,sp,244
201059ce:	2010                	lbu	a2,0(s0)
201059d0:	1984                	addi	s1,sp,240
201059d2:	2010                	lbu	a2,0(s0)
201059d4:	19d4                	addi	a3,sp,244
201059d6:	2010                	lbu	a2,0(s0)
201059d8:	19d4                	addi	a3,sp,244
201059da:	2010                	lbu	a2,0(s0)
201059dc:	19d4                	addi	a3,sp,244
201059de:	2010                	lbu	a2,0(s0)
201059e0:	19a0                	addi	s0,sp,248
201059e2:	2010                	lbu	a2,0(s0)
201059e4:	19d4                	addi	a3,sp,244
201059e6:	2010                	lbu	a2,0(s0)
201059e8:	19d4                	addi	a3,sp,244
201059ea:	2010                	lbu	a2,0(s0)
201059ec:	19d4                	addi	a3,sp,244
201059ee:	2010                	lbu	a2,0(s0)
201059f0:	19d4                	addi	a3,sp,244
201059f2:	2010                	lbu	a2,0(s0)
201059f4:	19d4                	addi	a3,sp,244
201059f6:	2010                	lbu	a2,0(s0)
201059f8:	19d4                	addi	a3,sp,244
201059fa:	2010                	lbu	a2,0(s0)
201059fc:	19d4                	addi	a3,sp,244
201059fe:	2010                	lbu	a2,0(s0)
20105a00:	19c6                	slli	s3,s3,0x31
20105a02:	2010                	lbu	a2,0(s0)
20105a04:	554d495b          	.4byte	0x554d495b
20105a08:	205d                	jal	20105aae <_read+0x124>
20105a0a:	ade8                	sb	a0,30(a1)
20105a0c:	e5a6                	.2byte	0xe5a6
20105a0e:	8a91                	andi	a3,a3,4
20105a10:	203a                	lhu	a4,2(s0)
20105a12:	afe8                	sb	a0,30(a5)
20105a14:	968fe5bb          	.4byte	0x968fe5bb
20105a18:	99e9                	andi	a1,a1,-6
20105a1a:	e880                	.2byte	0xe880
20105a1c:	ba9e                	sh	a5,48(a3)
20105a1e:	bbe4                	sb	s1,23(a5)
20105a20:	e9aa                	.2byte	0xe9aa
20105a22:	a8e78f87          	.4byte	0xa8e78f87
20105a26:	b1a4e58b          	.4byte	0xb1a4e58b
20105a2a:	b4e8                	sb	a0,15(s1)
20105a2c:	efa5                	bnez	a5,20105aa4 <_read+0x11a>
20105a2e:	8cbc                	.2byte	0x8cbc
20105a30:	bde4                	sb	s1,31(a1)
20105a32:	a894e7bf e898bbe9 	.8byte	0xe898bbe9a894e7bf
20105a3a:	a4ae                	sh	a1,10(s1)
20105a3c:	80e5                	srli	s1,s1,0x19
20105a3e:	0dbc                	addi	a5,sp,728
20105a40:	0000                	unimp
20105a42:	0000                	unimp
20105a44:	554d495b          	.4byte	0x554d495b
20105a48:	205d                	jal	20105aee <_read+0x164>
20105a4a:	99e9                	andi	a1,a1,-6
20105a4c:	e880                	.2byte	0xe880
20105a4e:	ba9e                	sh	a5,48(a3)
20105a50:	bbe4                	sb	s1,23(a5)
20105a52:	e9aa                	.2byte	0xe9aa
20105a54:	a8e78f87          	.4byte	0xa8e78f87
20105a58:	25203a8b          	.4byte	0x25203a8b
20105a5c:	2064                	lbu	s1,6(s0)
20105a5e:	7064                	.2byte	0x7064
20105a60:	000a0d73          	.4byte	0xa0d73
20105a64:	554d495b          	.4byte	0x554d495b
20105a68:	205d                	jal	20105b0e <g_font_6x8+0x1e>
20105a6a:	ade8                	sb	a0,30(a1)
20105a6c:	e5a6                	.2byte	0xe5a6
20105a6e:	8a91                	andi	a3,a3,4
20105a70:	203a                	lhu	a4,2(s0)
20105a72:	afe8                	sb	a0,30(a5)
20105a74:	968fe5bb          	.4byte	0x968fe5bb
20105a78:	8ae5                	andi	a3,a3,25
20105a7a:	e9a0                	.2byte	0xe9a0
20105a7c:	9f80                	.2byte	0x9f80
20105a7e:	bae5                	j	20105476 <_vfiprintf_r+0x48>
20105a80:	e8a6                	.2byte	0xe8a6
20105a82:	a1ae                	sh	a1,2(a1)
20105a84:	87e9                	srai	a5,a5,0x1a
20105a86:	8ba8e78f          	.4byte	0x8ba8e78f
20105a8a:	a4e5                	j	20105d72 <g_font_6x8+0x282>
20105a8c:	e8b1                	bnez	s1,20105ae0 <_read+0x156>
20105a8e:	a5b4                	sb	a3,10(a1)
20105a90:	e48cbcef          	jal	s9,200d10d8 <_data_lma+0x200cacd8>
20105a94:	bfbd                	j	20105a12 <_read+0x88>
20105a96:	e9a894e7          	.4byte	0xe9a894e7
20105a9a:	aee898bb          	.4byte	0xaee898bb
20105a9e:	e5a4                	.2byte	0xe5a4
20105aa0:	bc80                	sb	s0,25(s1)
20105aa2:	000d                	c.nop	3
20105aa4:	554d495b          	.4byte	0x554d495b
20105aa8:	205d                	jal	20105b4e <g_font_6x8+0x5e>
20105aaa:	8ae5                	andi	a3,a3,25
20105aac:	e9a0                	.2byte	0xe9a0
20105aae:	9f80                	.2byte	0x9f80
20105ab0:	bae5                	j	201054a8 <_vfiprintf_r+0x7a>
20105ab2:	e8a6                	.2byte	0xe8a6
20105ab4:	a1ae                	sh	a1,2(a1)
20105ab6:	87e9                	srai	a5,a5,0x1a
20105ab8:	8ba8e78f          	.4byte	0x8ba8e78f
20105abc:	203a                	lhu	a4,2(s0)
20105abe:	6425                	lui	s0,0x9
20105ac0:	4720                	lw	s0,72(a4)
20105ac2:	0a0d                	addi	s4,s4,3
20105ac4:	0000                	unimp
20105ac6:	0000                	unimp
20105ac8:	554d495b          	.4byte	0x554d495b
20105acc:	205d                	jal	20105b72 <g_font_6x8+0x82>
20105ace:	88e5                	andi	s1,s1,25
20105ad0:	e59d                	bnez	a1,20105afe <g_font_6x8+0xe>
20105ad2:	8ce58ba7          	.4byte	0x8ce58ba7
20105ad6:	e596                	.2byte	0xe596
20105ad8:	8cae                	mv	s9,a1
20105ada:	88e6                	mv	a7,s9
20105adc:	2c90                	lbu	a2,24(s1)
20105ade:	e620                	.2byte	0xe620
20105ae0:	89e7a2b3          	.4byte	0x89e7a2b3
20105ae4:	e7b9                	bnez	a5,20105b32 <g_font_6x8+0x42>
20105ae6:	878e                	mv	a5,gp
20105ae8:	253d                	jal	20106116 <__clz_tab+0x7a>
20105aea:	0d64                	addi	s1,sp,668
20105aec:	000a                	c.slli	zero,0x2
	...

20105af0 <g_font_6x8>:
	...
20105af8:	005f 0000 0700 0700 0000 7f14 7f14 0014     _...............
20105b08:	2a24 2a7f 0012 1323 6408 0062 4936 2255     $*.*..#..db.6IU"
20105b18:	0050 0500 0003 0000 1c00 4122 0000 4100     P........."A...A
20105b28:	1c22 0000 2a08 2a1c 0008 0808 083e 0008     "....*.*....>...
20105b38:	5000 0030 0000 0808 0808 0008 6000 0060     .P0..........``.
20105b48:	0000 1020 0408 0002 513e 4549 003e 4200     .. .....>QIE>..B
20105b58:	407f 0000 6142 4951 0046 4121 4b45 0031     .@..BaQIF.!AEK1.
20105b68:	1418 7f12 0010 4527 4545 0039 4a3c 4949     ......'EEE9.<JII
20105b78:	0030 7101 0509 0003 4936 4949 0036 4906     0..q....6III6..I
20105b88:	2949 001e 3600 0036 0000 5600 0036 0000     I)...66....V6...
20105b98:	0800 2214 0041 1414 1414 0014 2241 0814     ..."A.......A"..
20105ba8:	0000 0102 0951 0006 4932 4179 003e 117e     ....Q...2IyA>.~.
20105bb8:	1111 007e 497f 4949 0036 413e 4141 0022     ..~..III6.>AAA".
20105bc8:	417f 2241 001c 497f 4949 0041 097f 0109     .AA"...IIIA.....
20105bd8:	0001 413e 5141 0032 087f 0808 007f 4100     ..>AAQ2........A
20105be8:	417f 0000 4020 3f41 0001 087f 2214 0041     .A.. @A?....."A.
20105bf8:	407f 4040 0040 027f 0204 007f 047f 1008     .@@@@...........
20105c08:	007f 413e 4141 003e 097f 0909 0006 413e     ..>AAA>.......>A
20105c18:	2151 005e 097f 2919 0046 4946 4949 0031     Q!^....)F.FIII1.
20105c28:	0101 017f 0001 403f 4040 003f 201f 2040     ......?@@@?.. @ 
20105c38:	001f 207f 2018 007f 1463 1408 0063 0403     ... . ..c...c...
20105c48:	0478 0003 5161 4549 0043 0000 417f 0041     x...aQIEC....AA.
20105c58:	0402 1008 0020 4141 007f 0000 0204 0201     .... .AA........
20105c68:	0004 4040 4040 0040 0100 0402 0000 5420     ..@@@@@....... T
20105c78:	5454 0078 487f 4444 0038 4438 4444 0020     TTx..HDD8.8DDD .
20105c88:	4438 4844 007f 5438 5454 0018 7e08 0109     8DDH..8TTT...~..
20105c98:	0002 1408 5454 003c 087f 0404 0078 4400     ....TT<.....x..D
20105ca8:	407d 0000 4020 3d44 0000 7f00 2810 0044     }@.. @D=.....(D.
20105cb8:	4100 407f 0000 047c 0418 0078 087c 0404     .A.@..|...x.|...
20105cc8:	0078 4438 4444 0038 147c 1414 0008 1408     x.8DDD8.|.......
20105cd8:	1814 007c 087c 0404 0008 5448 5454 0020     ..|.|.....HTTT .
20105ce8:	3f04 4044 0020 403c 2040 007c 201c 2040     .?D@ .<@@ |.. @ 
20105cf8:	001c 403c 4030 003c 2844 2810 0044 500c     ..<@0@<.D(.(D..P
20105d08:	5050 003c 6444 4c54 0044 0800 4136 0000     PP<.DdTLD...6A..
20105d18:	0000 007f 0000 4100 0836 0000 0408 1008     .......A6.......
20105d28:	0008 0000 465b 4f4c 5d57 5020 574d 3933     ....[FLOW] PMW39
20105d38:	3130 5020 6f72 7564 7463 495f 3d44 7830     01 Product_ID=0x
20105d48:	3025 5832 4920 766e 495f 3d44 7830 3025     %02X Inv_ID=0x%0
20105d58:	5832 0a0d 0000 0000 465b 4f4c 5d57 5020     2X......[FLOW] P
20105d68:	574d 3933 3130 e520 9d88 a7e5 e58b 968c     MW3901 .........
20105d78:	88e6 e590 9f8a 000d 465b 4f4c 5d57 5020     ........[FLOW] P
20105d88:	574d 3933 3130 4920 2044 bce5 e582 b8b8     MW3901 ID ......
20105d98:	202c afe8 e6b7 80a3 9fe6 e6a5 a58e bae7     , ..............
20105da8:	3abf 5020 3342 532f 4b43 5020 3442 4d2f     .: PB3/SCK PB4/M
20105db8:	5349 204f 4250 2f35 4f4d 4953 5020 3543     ISO PB5/MOSI PC5
20105dc8:	432f 0d53 0000 0000 4747 0041 4d52 0043     /CS.....GGA.RMC.
20105dd8:	5456 0047 5347 0041 5347 0056 4c47 004c     VTG.GSA.GSV.GLL.
20105de8:	4433 0000 4432 0000 4f4e 0000 6325 6c25     3D..2D..NO..%c%l
20105df8:	2e64 3025 6c37 0064 5047 2053 6325 2520     d.%07ld.GPS %c %
20105e08:	2073 2551 2075 2553 3230 2f75 3025 7532     s Q%u S%02u/%02u
20105e18:	0000 0000 414c 2054 7325 0000 4f4c 204e     ....LAT %s..LON 
20105e28:	7325 0000 4c41 2054 6c25 2e64 3025 6c31     %s..ALT %ld.%01l
20105e38:	6d64 0000 5053 2044 6c25 2e75 3025 6c32     dm..SPD %lu.%02l
20105e48:	6d75 732f 0000 0000 5243 2053 7525 252e     um/s....CRS %u.%
20105e58:	3230 2075 4448 2520 2e75 3025 7532 0000     02u HD %u.%02u..
20105e68:	5455 2043 3025 6c32 3a75 3025 6c32 3a75     UTC %02lu:%02lu:
20105e78:	3025 6c32 0075 0000 4d4e 4145 2520 756c     %02lu...NMEA %lu
20105e88:	4f20 204b 6c25 0075 3356 2046 a1e7 e4ac      OK %lu.V3F ....
20105e98:	b6bb 88e5 e59d 8ba7 8ce5 0d96 0000 0000     ................
20105ea8:	495b 554d 205d 88e5 e59d 8ba7 8ce5 e596     [IMU] ..........
20105eb8:	b1a4 b4e8 21a5 e820 b7af a3e6 e680 a59f     .....! .........
20105ec8:	8ee6 e7a5 bfba 203a 4250 3031 86e2 4992     ......: PB10...I
20105ed8:	554d 525f 2c58 5020 3142 e231 9286 4d49     MU_RX, PB11...IM
20105ee8:	5f55 5854 202c 4e47 2c44 3320 332e 0d56     U_TX, GND, 3.3V.
20105ef8:	0000 0000 495b 554d 205d bce5 e580 8ba7     ....[IMU] ......
20105f08:	afe8 e5bb 968f 95e6 e6b0 ae8d 2e2e 0d2e     ................
20105f18:	0000 0000 455b 4353 205d 5750 204d 88e5     ....[ESC] PWM ..
20105f28:	e59d 8ba7 8ce5 e596 8cae 88e6 2c90 e520     ............., .
20105f38:	9b9b b7e8 e7af 9fbb b8e4 e880 93be 87e5     ................
20105f48:	20ba 3031 3036 7375 000d 0000 545b 464f     . 1060us....[TOF
20105f58:	205d 4654 696d 696e e420 8bb8 a7e8 e586     ] TFmini .......
20105f68:	9d88 a7e5 e58b 968c aee5 e68c 9088 000d     ................
20105f78:	475b 5350 205d 5253 3532 3532 314d 4430     [GPS] SR2525M10D
20105f88:	5520 4153 5452 2034 88e5 e59d 8ba7 8ce5      USART4 ........
20105f98:	e596 8cae 88e6 2c90 e620 a2b3 89e7 e7b9     ......., .......
20105fa8:	878e 2520 0d64 000a 5047 2053 4c4f 4445     .. %d...GPS OLED
20105fb8:	5220 4145 5944 0000 3249 3343 5020 3141      READY..I2C3 PA1
20105fc8:	2f34 4150 3331 0000 4f5b 454c 5d44 5320     4/PA13..[OLED] S
20105fd8:	4453 3331 3630 e520 9d88 a7e5 e58b 968c     SD1306 .........
20105fe8:	aee5 e68c 9088 202c b8e4 e78e 97bd 9be7     ......, ........
20105ff8:	e598 b185 bae4 20ab 3249 3343 5020 3141     ....... I2C3 PA1
20106008:	2f34 4150 3331 000d 475b 5350 205d 6966     4/PA13..[GPS] fi
20106018:	3d78 6425 7120 6175 3d6c 6425 7320 7461     x=%d qual=%d sat
20106028:	3d73 6425 6c20 7461 253d 646c 6c20 6e6f     s=%d lat=%ld lon
20106038:	253d 646c 6120 746c 253d 646c 6d6d 7320     =%ld alt=%ldmm s
20106048:	6470 253d 756c 6320 756f 7372 3d65 7525     pd=%lu course=%u
20106058:	252e 3230 0d75 000a 495b 4350 205d 88e5     .%02u...[IPC] ..
20106068:	e59d 8ba7 8ce5 e596 8cae 88e6 0d90 0000     ................
20106078:	38b8 2010 38fa 2010 392a 2010 395a 2010     .8. .8. *9. Z9. 
20106088:	398c 2010 39c6 2010 39f6 2010 3a4a 2010     .9. .9. .9. J:. 
20106098:	3a7c 2010                                   |:. 

2010609c <__clz_tab>:
2010609c:	0100 0202 0303 0303 0404 0404 0404 0404     ................
201060ac:	0505 0505 0505 0505 0505 0505 0505 0505     ................
201060bc:	0606 0606 0606 0606 0606 0606 0606 0606     ................
201060cc:	0606 0606 0606 0606 0606 0606 0606 0606     ................
201060dc:	0707 0707 0707 0707 0707 0707 0707 0707     ................
201060ec:	0707 0707 0707 0707 0707 0707 0707 0707     ................
201060fc:	0707 0707 0707 0707 0707 0707 0707 0707     ................
2010610c:	0707 0707 0707 0707 0707 0707 0707 0707     ................
2010611c:	0808 0808 0808 0808 0808 0808 0808 0808     ................
2010612c:	0808 0808 0808 0808 0808 0808 0808 0808     ................
2010613c:	0808 0808 0808 0808 0808 0808 0808 0808     ................
2010614c:	0808 0808 0808 0808 0808 0808 0808 0808     ................
2010615c:	0808 0808 0808 0808 0808 0808 0808 0808     ................
2010616c:	0808 0808 0808 0808 0808 0808 0808 0808     ................
2010617c:	0808 0808 0808 0808 0808 0808 0808 0808     ................
2010618c:	0808 0808 0808 0808 0808 0808 0808 0808     ................

2010619c <__sf_fake_stderr>:
	...

201061bc <__sf_fake_stdout>:
	...

201061dc <__sf_fake_stdin>:
	...
201061fc:	2d23 2b30 0020 0000 6c68 004c 6665 4567     #-0+ ...hlL.efgE
2010620c:	4746 0000 3130 3332 3534 3736 3938 4241     FG..0123456789AB
2010621c:	4443 4645 0000 0000 3130 3332 3534 3736     CDEF....01234567
2010622c:	3938 6261 6463 6665 0000 0000 ef82 ffff     89abcdef........
2010623c:	ef98 ffff ef58 ffff ef58 ffff ef58 ffff     ....X...X...X...
2010624c:	ef58 ffff ef98 ffff ef58 ffff ef58 ffff     X.......X...X...
2010625c:	ef58 ffff ef58 ffff f0f6 ffff effc ffff     X...X...........
2010626c:	f090 ffff ef58 ffff ef58 ffff f124 ffff     ....X...X...$...
2010627c:	ef58 ffff effc ffff ef58 ffff ef58 ffff     X.......X...X...
2010628c:	f098 ffff                                   ....

Disassembly of section .text:

0000637c <handle_reset>:
    637c:	2010a197          	auipc	gp,0x2010a
    6380:	66418193          	addi	gp,gp,1636 # 201109e0 <__global_pointer$>
    6384:	2017a117          	auipc	sp,0x2017a
    6388:	c7c10113          	addi	sp,sp,-900 # 20180000 <_eusrstack>
    638c:	00800513          	li	a0,8
    6390:	2010a597          	auipc	a1,0x2010a
    6394:	c7058593          	addi	a1,a1,-912 # 20110000 <_loadcode_vma_start>
    6398:	2010a617          	auipc	a2,0x2010a
    639c:	d4c60613          	addi	a2,a2,-692 # 201100e4 <_loadcode_vma_end>
    63a0:	00c5fa63          	bgeu	a1,a2,63b4 <handle_reset+0x38>
    63a4:	00052283          	lw	t0,0(a0)
    63a8:	0055a023          	sw	t0,0(a1)
    63ac:	0511                	addi	a0,a0,4
    63ae:	0591                	addi	a1,a1,4
    63b0:	fec5eae3          	bltu	a1,a2,63a4 <handle_reset+0x28>
    63b4:	2010a097          	auipc	ra,0x2010a
    63b8:	c4c080e7          	jalr	-948(ra) # 20110000 <_loadcode_vma_start>
    63bc:	123702b7          	lui	t0,0x12370
    63c0:	3e128293          	addi	t0,t0,993 # 123703e1 <_data_lma+0x12369fe1>
    63c4:	bc029073          	csrw	0xbc0,t0
    63c8:	4285                	li	t0,1
    63ca:	bc129073          	csrw	0xbc1,t0
    63ce:	429d                	li	t0,7
    63d0:	80429073          	csrw	0x804,t0
    63d4:	6299                	lui	t0,0x6
    63d6:	08828293          	addi	t0,t0,136 # 6088 <__stack_size+0x5888>
    63da:	30029073          	csrw	mstatus,t0
    63de:	200fa297          	auipc	t0,0x200fa
    63e2:	c2228293          	addi	t0,t0,-990 # 20100000 <_highcode_vma_start>
    63e6:	0032e293          	ori	t0,t0,3
    63ea:	30529073          	csrw	mtvec,t0

000063ee <BP>:
    63ee:	200fa297          	auipc	t0,0x200fa
    63f2:	f4828293          	addi	t0,t0,-184 # 20100336 <main>
    63f6:	34129073          	csrw	mepc,t0
    63fa:	30200073          	mret
	...
